
user/_usertests:     file format elf64-littleriscv


Disassembly of section .text:

0000000000000000 <test_handler>:
char buf[BUFSZ];


int wait_sig = 0;

void test_handler(int signum){
       0:	1141                	addi	sp,sp,-16
       2:	e406                	sd	ra,8(sp)
       4:	e022                	sd	s0,0(sp)
       6:	0800                	addi	s0,sp,16
    wait_sig = 1;
       8:	4785                	li	a5,1
       a:	00008717          	auipc	a4,0x8
       e:	0af72723          	sw	a5,174(a4) # 80b8 <wait_sig>
    printf("Received sigtest\n");
      12:	00006517          	auipc	a0,0x6
      16:	e5650513          	addi	a0,a0,-426 # 5e68 <malloc+0x1ea>
      1a:	00006097          	auipc	ra,0x6
      1e:	ba6080e7          	jalr	-1114(ra) # 5bc0 <printf>
}
      22:	60a2                	ld	ra,8(sp)
      24:	6402                	ld	s0,0(sp)
      26:	0141                	addi	sp,sp,16
      28:	8082                	ret

000000000000002a <exitwait>:
}

// try to find any races between exit and wait
void
exitwait(char *s)
{
      2a:	7139                	addi	sp,sp,-64
      2c:	fc06                	sd	ra,56(sp)
      2e:	f822                	sd	s0,48(sp)
      30:	f426                	sd	s1,40(sp)
      32:	f04a                	sd	s2,32(sp)
      34:	ec4e                	sd	s3,24(sp)
      36:	e852                	sd	s4,16(sp)
      38:	0080                	addi	s0,sp,64
      3a:	8a2a                	mv	s4,a0
  int i, pid;

  for(i = 0; i < 100; i++){
      3c:	4901                	li	s2,0
      3e:	06400993          	li	s3,100
    pid = fork();
      42:	00005097          	auipc	ra,0x5
      46:	772080e7          	jalr	1906(ra) # 57b4 <fork>
      4a:	84aa                	mv	s1,a0
    if(pid < 0){
      4c:	02054a63          	bltz	a0,80 <exitwait+0x56>
      printf("%s: fork failed\n", s);
      exit(1);
    }
    if(pid){
      50:	c151                	beqz	a0,d4 <exitwait+0xaa>
      int xstate;
      if(wait(&xstate) != pid){
      52:	fcc40513          	addi	a0,s0,-52
      56:	00005097          	auipc	ra,0x5
      5a:	76e080e7          	jalr	1902(ra) # 57c4 <wait>
      5e:	02951f63          	bne	a0,s1,9c <exitwait+0x72>
        printf("%s: wait wrong pid\n", s);
        exit(1);
      }
      if(i != xstate) {
      62:	fcc42783          	lw	a5,-52(s0)
      66:	05279963          	bne	a5,s2,b8 <exitwait+0x8e>
  for(i = 0; i < 100; i++){
      6a:	2905                	addiw	s2,s2,1
      6c:	fd391be3          	bne	s2,s3,42 <exitwait+0x18>
      }
    } else {
      exit(i);
    }
  }
}
      70:	70e2                	ld	ra,56(sp)
      72:	7442                	ld	s0,48(sp)
      74:	74a2                	ld	s1,40(sp)
      76:	7902                	ld	s2,32(sp)
      78:	69e2                	ld	s3,24(sp)
      7a:	6a42                	ld	s4,16(sp)
      7c:	6121                	addi	sp,sp,64
      7e:	8082                	ret
      printf("%s: fork failed\n", s);
      80:	85d2                	mv	a1,s4
      82:	00006517          	auipc	a0,0x6
      86:	dfe50513          	addi	a0,a0,-514 # 5e80 <malloc+0x202>
      8a:	00006097          	auipc	ra,0x6
      8e:	b36080e7          	jalr	-1226(ra) # 5bc0 <printf>
      exit(1);
      92:	4505                	li	a0,1
      94:	00005097          	auipc	ra,0x5
      98:	728080e7          	jalr	1832(ra) # 57bc <exit>
        printf("%s: wait wrong pid\n", s);
      9c:	85d2                	mv	a1,s4
      9e:	00006517          	auipc	a0,0x6
      a2:	dfa50513          	addi	a0,a0,-518 # 5e98 <malloc+0x21a>
      a6:	00006097          	auipc	ra,0x6
      aa:	b1a080e7          	jalr	-1254(ra) # 5bc0 <printf>
        exit(1);
      ae:	4505                	li	a0,1
      b0:	00005097          	auipc	ra,0x5
      b4:	70c080e7          	jalr	1804(ra) # 57bc <exit>
        printf("%s: wait wrong exit status\n", s);
      b8:	85d2                	mv	a1,s4
      ba:	00006517          	auipc	a0,0x6
      be:	df650513          	addi	a0,a0,-522 # 5eb0 <malloc+0x232>
      c2:	00006097          	auipc	ra,0x6
      c6:	afe080e7          	jalr	-1282(ra) # 5bc0 <printf>
        exit(1);
      ca:	4505                	li	a0,1
      cc:	00005097          	auipc	ra,0x5
      d0:	6f0080e7          	jalr	1776(ra) # 57bc <exit>
      exit(i);
      d4:	854a                	mv	a0,s2
      d6:	00005097          	auipc	ra,0x5
      da:	6e6080e7          	jalr	1766(ra) # 57bc <exit>

00000000000000de <forktest>:
// test that fork fails gracefully
// the forktest binary also does this, but it runs out of proc entries first.
// inside the bigger usertests binary, we run out of memory first.
void
forktest(char *s)
{
      de:	7179                	addi	sp,sp,-48
      e0:	f406                	sd	ra,40(sp)
      e2:	f022                	sd	s0,32(sp)
      e4:	ec26                	sd	s1,24(sp)
      e6:	e84a                	sd	s2,16(sp)
      e8:	e44e                	sd	s3,8(sp)
      ea:	1800                	addi	s0,sp,48
      ec:	89aa                	mv	s3,a0
  enum{ N = 1000 };
  int n, pid;

  for(n=0; n<N; n++){
      ee:	4481                	li	s1,0
      f0:	3e800913          	li	s2,1000
    pid = fork();
      f4:	00005097          	auipc	ra,0x5
      f8:	6c0080e7          	jalr	1728(ra) # 57b4 <fork>
    if(pid < 0)
      fc:	02054863          	bltz	a0,12c <forktest+0x4e>
      break;
    if(pid == 0)
     100:	c115                	beqz	a0,124 <forktest+0x46>
  for(n=0; n<N; n++){
     102:	2485                	addiw	s1,s1,1
     104:	ff2498e3          	bne	s1,s2,f4 <forktest+0x16>
    printf("%s: no fork at all!\n", s);
    exit(1);
  }

  if(n == N){
    printf("%s: fork claimed to work 1000 times!\n", s);
     108:	85ce                	mv	a1,s3
     10a:	00006517          	auipc	a0,0x6
     10e:	dde50513          	addi	a0,a0,-546 # 5ee8 <malloc+0x26a>
     112:	00006097          	auipc	ra,0x6
     116:	aae080e7          	jalr	-1362(ra) # 5bc0 <printf>
    exit(1);
     11a:	4505                	li	a0,1
     11c:	00005097          	auipc	ra,0x5
     120:	6a0080e7          	jalr	1696(ra) # 57bc <exit>
      exit(0);
     124:	00005097          	auipc	ra,0x5
     128:	698080e7          	jalr	1688(ra) # 57bc <exit>
  if (n == 0) {
     12c:	cc9d                	beqz	s1,16a <forktest+0x8c>
  if(n == N){
     12e:	3e800793          	li	a5,1000
     132:	fcf48be3          	beq	s1,a5,108 <forktest+0x2a>
  }

  for(; n > 0; n--){
     136:	00905b63          	blez	s1,14c <forktest+0x6e>
    if(wait(0) < 0){
     13a:	4501                	li	a0,0
     13c:	00005097          	auipc	ra,0x5
     140:	688080e7          	jalr	1672(ra) # 57c4 <wait>
     144:	04054163          	bltz	a0,186 <forktest+0xa8>
  for(; n > 0; n--){
     148:	34fd                	addiw	s1,s1,-1
     14a:	f8e5                	bnez	s1,13a <forktest+0x5c>
      printf("%s: wait stopped early\n", s);
      exit(1);
    }
  }

  if(wait(0) != -1){
     14c:	4501                	li	a0,0
     14e:	00005097          	auipc	ra,0x5
     152:	676080e7          	jalr	1654(ra) # 57c4 <wait>
     156:	57fd                	li	a5,-1
     158:	04f51563          	bne	a0,a5,1a2 <forktest+0xc4>
    printf("%s: wait got too many\n", s);
    exit(1);
  }
}
     15c:	70a2                	ld	ra,40(sp)
     15e:	7402                	ld	s0,32(sp)
     160:	64e2                	ld	s1,24(sp)
     162:	6942                	ld	s2,16(sp)
     164:	69a2                	ld	s3,8(sp)
     166:	6145                	addi	sp,sp,48
     168:	8082                	ret
    printf("%s: no fork at all!\n", s);
     16a:	85ce                	mv	a1,s3
     16c:	00006517          	auipc	a0,0x6
     170:	d6450513          	addi	a0,a0,-668 # 5ed0 <malloc+0x252>
     174:	00006097          	auipc	ra,0x6
     178:	a4c080e7          	jalr	-1460(ra) # 5bc0 <printf>
    exit(1);
     17c:	4505                	li	a0,1
     17e:	00005097          	auipc	ra,0x5
     182:	63e080e7          	jalr	1598(ra) # 57bc <exit>
      printf("%s: wait stopped early\n", s);
     186:	85ce                	mv	a1,s3
     188:	00006517          	auipc	a0,0x6
     18c:	d8850513          	addi	a0,a0,-632 # 5f10 <malloc+0x292>
     190:	00006097          	auipc	ra,0x6
     194:	a30080e7          	jalr	-1488(ra) # 5bc0 <printf>
      exit(1);
     198:	4505                	li	a0,1
     19a:	00005097          	auipc	ra,0x5
     19e:	622080e7          	jalr	1570(ra) # 57bc <exit>
    printf("%s: wait got too many\n", s);
     1a2:	85ce                	mv	a1,s3
     1a4:	00006517          	auipc	a0,0x6
     1a8:	d8450513          	addi	a0,a0,-636 # 5f28 <malloc+0x2aa>
     1ac:	00006097          	auipc	ra,0x6
     1b0:	a14080e7          	jalr	-1516(ra) # 5bc0 <printf>
    exit(1);
     1b4:	4505                	li	a0,1
     1b6:	00005097          	auipc	ra,0x5
     1ba:	606080e7          	jalr	1542(ra) # 57bc <exit>

00000000000001be <opentest>:
{
     1be:	1101                	addi	sp,sp,-32
     1c0:	ec06                	sd	ra,24(sp)
     1c2:	e822                	sd	s0,16(sp)
     1c4:	e426                	sd	s1,8(sp)
     1c6:	1000                	addi	s0,sp,32
     1c8:	84aa                	mv	s1,a0
  fd = open("echo", 0);
     1ca:	4581                	li	a1,0
     1cc:	00006517          	auipc	a0,0x6
     1d0:	d7450513          	addi	a0,a0,-652 # 5f40 <malloc+0x2c2>
     1d4:	00005097          	auipc	ra,0x5
     1d8:	628080e7          	jalr	1576(ra) # 57fc <open>
  if(fd < 0){
     1dc:	02054663          	bltz	a0,208 <opentest+0x4a>
  close(fd);
     1e0:	00005097          	auipc	ra,0x5
     1e4:	604080e7          	jalr	1540(ra) # 57e4 <close>
  fd = open("doesnotexist", 0);
     1e8:	4581                	li	a1,0
     1ea:	00006517          	auipc	a0,0x6
     1ee:	d7650513          	addi	a0,a0,-650 # 5f60 <malloc+0x2e2>
     1f2:	00005097          	auipc	ra,0x5
     1f6:	60a080e7          	jalr	1546(ra) # 57fc <open>
  if(fd >= 0){
     1fa:	02055563          	bgez	a0,224 <opentest+0x66>
}
     1fe:	60e2                	ld	ra,24(sp)
     200:	6442                	ld	s0,16(sp)
     202:	64a2                	ld	s1,8(sp)
     204:	6105                	addi	sp,sp,32
     206:	8082                	ret
    printf("%s: open echo failed!\n", s);
     208:	85a6                	mv	a1,s1
     20a:	00006517          	auipc	a0,0x6
     20e:	d3e50513          	addi	a0,a0,-706 # 5f48 <malloc+0x2ca>
     212:	00006097          	auipc	ra,0x6
     216:	9ae080e7          	jalr	-1618(ra) # 5bc0 <printf>
    exit(1);
     21a:	4505                	li	a0,1
     21c:	00005097          	auipc	ra,0x5
     220:	5a0080e7          	jalr	1440(ra) # 57bc <exit>
    printf("%s: open doesnotexist succeeded!\n", s);
     224:	85a6                	mv	a1,s1
     226:	00006517          	auipc	a0,0x6
     22a:	d4a50513          	addi	a0,a0,-694 # 5f70 <malloc+0x2f2>
     22e:	00006097          	auipc	ra,0x6
     232:	992080e7          	jalr	-1646(ra) # 5bc0 <printf>
    exit(1);
     236:	4505                	li	a0,1
     238:	00005097          	auipc	ra,0x5
     23c:	584080e7          	jalr	1412(ra) # 57bc <exit>

0000000000000240 <createtest>:
{
     240:	7179                	addi	sp,sp,-48
     242:	f406                	sd	ra,40(sp)
     244:	f022                	sd	s0,32(sp)
     246:	ec26                	sd	s1,24(sp)
     248:	e84a                	sd	s2,16(sp)
     24a:	1800                	addi	s0,sp,48
  name[0] = 'a';
     24c:	06100793          	li	a5,97
     250:	fcf40c23          	sb	a5,-40(s0)
  name[2] = '\0';
     254:	fc040d23          	sb	zero,-38(s0)
     258:	03000493          	li	s1,48
  for(i = 0; i < N; i++){
     25c:	06400913          	li	s2,100
    name[1] = '0' + i;
     260:	fc940ca3          	sb	s1,-39(s0)
    fd = open(name, O_CREATE|O_RDWR);
     264:	20200593          	li	a1,514
     268:	fd840513          	addi	a0,s0,-40
     26c:	00005097          	auipc	ra,0x5
     270:	590080e7          	jalr	1424(ra) # 57fc <open>
    close(fd);
     274:	00005097          	auipc	ra,0x5
     278:	570080e7          	jalr	1392(ra) # 57e4 <close>
  for(i = 0; i < N; i++){
     27c:	2485                	addiw	s1,s1,1
     27e:	0ff4f493          	andi	s1,s1,255
     282:	fd249fe3          	bne	s1,s2,260 <createtest+0x20>
  name[0] = 'a';
     286:	06100793          	li	a5,97
     28a:	fcf40c23          	sb	a5,-40(s0)
  name[2] = '\0';
     28e:	fc040d23          	sb	zero,-38(s0)
     292:	03000493          	li	s1,48
  for(i = 0; i < N; i++){
     296:	06400913          	li	s2,100
    name[1] = '0' + i;
     29a:	fc940ca3          	sb	s1,-39(s0)
    unlink(name);
     29e:	fd840513          	addi	a0,s0,-40
     2a2:	00005097          	auipc	ra,0x5
     2a6:	56a080e7          	jalr	1386(ra) # 580c <unlink>
  for(i = 0; i < N; i++){
     2aa:	2485                	addiw	s1,s1,1
     2ac:	0ff4f493          	andi	s1,s1,255
     2b0:	ff2495e3          	bne	s1,s2,29a <createtest+0x5a>
}
     2b4:	70a2                	ld	ra,40(sp)
     2b6:	7402                	ld	s0,32(sp)
     2b8:	64e2                	ld	s1,24(sp)
     2ba:	6942                	ld	s2,16(sp)
     2bc:	6145                	addi	sp,sp,48
     2be:	8082                	ret

00000000000002c0 <writetest>:
{
     2c0:	7139                	addi	sp,sp,-64
     2c2:	fc06                	sd	ra,56(sp)
     2c4:	f822                	sd	s0,48(sp)
     2c6:	f426                	sd	s1,40(sp)
     2c8:	f04a                	sd	s2,32(sp)
     2ca:	ec4e                	sd	s3,24(sp)
     2cc:	e852                	sd	s4,16(sp)
     2ce:	e456                	sd	s5,8(sp)
     2d0:	e05a                	sd	s6,0(sp)
     2d2:	0080                	addi	s0,sp,64
     2d4:	8b2a                	mv	s6,a0
  fd = open("small", O_CREATE|O_RDWR);
     2d6:	20200593          	li	a1,514
     2da:	00006517          	auipc	a0,0x6
     2de:	cbe50513          	addi	a0,a0,-834 # 5f98 <malloc+0x31a>
     2e2:	00005097          	auipc	ra,0x5
     2e6:	51a080e7          	jalr	1306(ra) # 57fc <open>
  if(fd < 0){
     2ea:	0a054d63          	bltz	a0,3a4 <writetest+0xe4>
     2ee:	892a                	mv	s2,a0
     2f0:	4481                	li	s1,0
    if(write(fd, "aaaaaaaaaa", SZ) != SZ){
     2f2:	00006997          	auipc	s3,0x6
     2f6:	cce98993          	addi	s3,s3,-818 # 5fc0 <malloc+0x342>
    if(write(fd, "bbbbbbbbbb", SZ) != SZ){
     2fa:	00006a97          	auipc	s5,0x6
     2fe:	cfea8a93          	addi	s5,s5,-770 # 5ff8 <malloc+0x37a>
  for(i = 0; i < N; i++){
     302:	06400a13          	li	s4,100
    if(write(fd, "aaaaaaaaaa", SZ) != SZ){
     306:	4629                	li	a2,10
     308:	85ce                	mv	a1,s3
     30a:	854a                	mv	a0,s2
     30c:	00005097          	auipc	ra,0x5
     310:	4d0080e7          	jalr	1232(ra) # 57dc <write>
     314:	47a9                	li	a5,10
     316:	0af51563          	bne	a0,a5,3c0 <writetest+0x100>
    if(write(fd, "bbbbbbbbbb", SZ) != SZ){
     31a:	4629                	li	a2,10
     31c:	85d6                	mv	a1,s5
     31e:	854a                	mv	a0,s2
     320:	00005097          	auipc	ra,0x5
     324:	4bc080e7          	jalr	1212(ra) # 57dc <write>
     328:	47a9                	li	a5,10
     32a:	0af51a63          	bne	a0,a5,3de <writetest+0x11e>
  for(i = 0; i < N; i++){
     32e:	2485                	addiw	s1,s1,1
     330:	fd449be3          	bne	s1,s4,306 <writetest+0x46>
  close(fd);
     334:	854a                	mv	a0,s2
     336:	00005097          	auipc	ra,0x5
     33a:	4ae080e7          	jalr	1198(ra) # 57e4 <close>
  fd = open("small", O_RDONLY);
     33e:	4581                	li	a1,0
     340:	00006517          	auipc	a0,0x6
     344:	c5850513          	addi	a0,a0,-936 # 5f98 <malloc+0x31a>
     348:	00005097          	auipc	ra,0x5
     34c:	4b4080e7          	jalr	1204(ra) # 57fc <open>
     350:	84aa                	mv	s1,a0
  if(fd < 0){
     352:	0a054563          	bltz	a0,3fc <writetest+0x13c>
  i = read(fd, buf, N*SZ*2);
     356:	7d000613          	li	a2,2000
     35a:	0000b597          	auipc	a1,0xb
     35e:	58658593          	addi	a1,a1,1414 # b8e0 <buf>
     362:	00005097          	auipc	ra,0x5
     366:	472080e7          	jalr	1138(ra) # 57d4 <read>
  if(i != N*SZ*2){
     36a:	7d000793          	li	a5,2000
     36e:	0af51563          	bne	a0,a5,418 <writetest+0x158>
  close(fd);
     372:	8526                	mv	a0,s1
     374:	00005097          	auipc	ra,0x5
     378:	470080e7          	jalr	1136(ra) # 57e4 <close>
  if(unlink("small") < 0){
     37c:	00006517          	auipc	a0,0x6
     380:	c1c50513          	addi	a0,a0,-996 # 5f98 <malloc+0x31a>
     384:	00005097          	auipc	ra,0x5
     388:	488080e7          	jalr	1160(ra) # 580c <unlink>
     38c:	0a054463          	bltz	a0,434 <writetest+0x174>
}
     390:	70e2                	ld	ra,56(sp)
     392:	7442                	ld	s0,48(sp)
     394:	74a2                	ld	s1,40(sp)
     396:	7902                	ld	s2,32(sp)
     398:	69e2                	ld	s3,24(sp)
     39a:	6a42                	ld	s4,16(sp)
     39c:	6aa2                	ld	s5,8(sp)
     39e:	6b02                	ld	s6,0(sp)
     3a0:	6121                	addi	sp,sp,64
     3a2:	8082                	ret
    printf("%s: error: creat small failed!\n", s);
     3a4:	85da                	mv	a1,s6
     3a6:	00006517          	auipc	a0,0x6
     3aa:	bfa50513          	addi	a0,a0,-1030 # 5fa0 <malloc+0x322>
     3ae:	00006097          	auipc	ra,0x6
     3b2:	812080e7          	jalr	-2030(ra) # 5bc0 <printf>
    exit(1);
     3b6:	4505                	li	a0,1
     3b8:	00005097          	auipc	ra,0x5
     3bc:	404080e7          	jalr	1028(ra) # 57bc <exit>
      printf("%s: error: write aa %d new file failed\n", s, i);
     3c0:	8626                	mv	a2,s1
     3c2:	85da                	mv	a1,s6
     3c4:	00006517          	auipc	a0,0x6
     3c8:	c0c50513          	addi	a0,a0,-1012 # 5fd0 <malloc+0x352>
     3cc:	00005097          	auipc	ra,0x5
     3d0:	7f4080e7          	jalr	2036(ra) # 5bc0 <printf>
      exit(1);
     3d4:	4505                	li	a0,1
     3d6:	00005097          	auipc	ra,0x5
     3da:	3e6080e7          	jalr	998(ra) # 57bc <exit>
      printf("%s: error: write bb %d new file failed\n", s, i);
     3de:	8626                	mv	a2,s1
     3e0:	85da                	mv	a1,s6
     3e2:	00006517          	auipc	a0,0x6
     3e6:	c2650513          	addi	a0,a0,-986 # 6008 <malloc+0x38a>
     3ea:	00005097          	auipc	ra,0x5
     3ee:	7d6080e7          	jalr	2006(ra) # 5bc0 <printf>
      exit(1);
     3f2:	4505                	li	a0,1
     3f4:	00005097          	auipc	ra,0x5
     3f8:	3c8080e7          	jalr	968(ra) # 57bc <exit>
    printf("%s: error: open small failed!\n", s);
     3fc:	85da                	mv	a1,s6
     3fe:	00006517          	auipc	a0,0x6
     402:	c3250513          	addi	a0,a0,-974 # 6030 <malloc+0x3b2>
     406:	00005097          	auipc	ra,0x5
     40a:	7ba080e7          	jalr	1978(ra) # 5bc0 <printf>
    exit(1);
     40e:	4505                	li	a0,1
     410:	00005097          	auipc	ra,0x5
     414:	3ac080e7          	jalr	940(ra) # 57bc <exit>
    printf("%s: read failed\n", s);
     418:	85da                	mv	a1,s6
     41a:	00006517          	auipc	a0,0x6
     41e:	c3650513          	addi	a0,a0,-970 # 6050 <malloc+0x3d2>
     422:	00005097          	auipc	ra,0x5
     426:	79e080e7          	jalr	1950(ra) # 5bc0 <printf>
    exit(1);
     42a:	4505                	li	a0,1
     42c:	00005097          	auipc	ra,0x5
     430:	390080e7          	jalr	912(ra) # 57bc <exit>
    printf("%s: unlink small failed\n", s);
     434:	85da                	mv	a1,s6
     436:	00006517          	auipc	a0,0x6
     43a:	c3250513          	addi	a0,a0,-974 # 6068 <malloc+0x3ea>
     43e:	00005097          	auipc	ra,0x5
     442:	782080e7          	jalr	1922(ra) # 5bc0 <printf>
    exit(1);
     446:	4505                	li	a0,1
     448:	00005097          	auipc	ra,0x5
     44c:	374080e7          	jalr	884(ra) # 57bc <exit>

0000000000000450 <writebig>:
{
     450:	7139                	addi	sp,sp,-64
     452:	fc06                	sd	ra,56(sp)
     454:	f822                	sd	s0,48(sp)
     456:	f426                	sd	s1,40(sp)
     458:	f04a                	sd	s2,32(sp)
     45a:	ec4e                	sd	s3,24(sp)
     45c:	e852                	sd	s4,16(sp)
     45e:	e456                	sd	s5,8(sp)
     460:	0080                	addi	s0,sp,64
     462:	8aaa                	mv	s5,a0
  fd = open("big", O_CREATE|O_RDWR);
     464:	20200593          	li	a1,514
     468:	00006517          	auipc	a0,0x6
     46c:	c2050513          	addi	a0,a0,-992 # 6088 <malloc+0x40a>
     470:	00005097          	auipc	ra,0x5
     474:	38c080e7          	jalr	908(ra) # 57fc <open>
     478:	89aa                	mv	s3,a0
  for(i = 0; i < MAXFILE; i++){
     47a:	4481                	li	s1,0
    ((int*)buf)[0] = i;
     47c:	0000b917          	auipc	s2,0xb
     480:	46490913          	addi	s2,s2,1124 # b8e0 <buf>
  for(i = 0; i < MAXFILE; i++){
     484:	10c00a13          	li	s4,268
  if(fd < 0){
     488:	06054c63          	bltz	a0,500 <writebig+0xb0>
    ((int*)buf)[0] = i;
     48c:	00992023          	sw	s1,0(s2)
    if(write(fd, buf, BSIZE) != BSIZE){
     490:	40000613          	li	a2,1024
     494:	85ca                	mv	a1,s2
     496:	854e                	mv	a0,s3
     498:	00005097          	auipc	ra,0x5
     49c:	344080e7          	jalr	836(ra) # 57dc <write>
     4a0:	40000793          	li	a5,1024
     4a4:	06f51c63          	bne	a0,a5,51c <writebig+0xcc>
  for(i = 0; i < MAXFILE; i++){
     4a8:	2485                	addiw	s1,s1,1
     4aa:	ff4491e3          	bne	s1,s4,48c <writebig+0x3c>
  close(fd);
     4ae:	854e                	mv	a0,s3
     4b0:	00005097          	auipc	ra,0x5
     4b4:	334080e7          	jalr	820(ra) # 57e4 <close>
  fd = open("big", O_RDONLY);
     4b8:	4581                	li	a1,0
     4ba:	00006517          	auipc	a0,0x6
     4be:	bce50513          	addi	a0,a0,-1074 # 6088 <malloc+0x40a>
     4c2:	00005097          	auipc	ra,0x5
     4c6:	33a080e7          	jalr	826(ra) # 57fc <open>
     4ca:	89aa                	mv	s3,a0
  n = 0;
     4cc:	4481                	li	s1,0
    i = read(fd, buf, BSIZE);
     4ce:	0000b917          	auipc	s2,0xb
     4d2:	41290913          	addi	s2,s2,1042 # b8e0 <buf>
  if(fd < 0){
     4d6:	06054263          	bltz	a0,53a <writebig+0xea>
    i = read(fd, buf, BSIZE);
     4da:	40000613          	li	a2,1024
     4de:	85ca                	mv	a1,s2
     4e0:	854e                	mv	a0,s3
     4e2:	00005097          	auipc	ra,0x5
     4e6:	2f2080e7          	jalr	754(ra) # 57d4 <read>
    if(i == 0){
     4ea:	c535                	beqz	a0,556 <writebig+0x106>
    } else if(i != BSIZE){
     4ec:	40000793          	li	a5,1024
     4f0:	0af51f63          	bne	a0,a5,5ae <writebig+0x15e>
    if(((int*)buf)[0] != n){
     4f4:	00092683          	lw	a3,0(s2)
     4f8:	0c969a63          	bne	a3,s1,5cc <writebig+0x17c>
    n++;
     4fc:	2485                	addiw	s1,s1,1
    i = read(fd, buf, BSIZE);
     4fe:	bff1                	j	4da <writebig+0x8a>
    printf("%s: error: creat big failed!\n", s);
     500:	85d6                	mv	a1,s5
     502:	00006517          	auipc	a0,0x6
     506:	b8e50513          	addi	a0,a0,-1138 # 6090 <malloc+0x412>
     50a:	00005097          	auipc	ra,0x5
     50e:	6b6080e7          	jalr	1718(ra) # 5bc0 <printf>
    exit(1);
     512:	4505                	li	a0,1
     514:	00005097          	auipc	ra,0x5
     518:	2a8080e7          	jalr	680(ra) # 57bc <exit>
      printf("%s: error: write big file failed\n", s, i);
     51c:	8626                	mv	a2,s1
     51e:	85d6                	mv	a1,s5
     520:	00006517          	auipc	a0,0x6
     524:	b9050513          	addi	a0,a0,-1136 # 60b0 <malloc+0x432>
     528:	00005097          	auipc	ra,0x5
     52c:	698080e7          	jalr	1688(ra) # 5bc0 <printf>
      exit(1);
     530:	4505                	li	a0,1
     532:	00005097          	auipc	ra,0x5
     536:	28a080e7          	jalr	650(ra) # 57bc <exit>
    printf("%s: error: open big failed!\n", s);
     53a:	85d6                	mv	a1,s5
     53c:	00006517          	auipc	a0,0x6
     540:	b9c50513          	addi	a0,a0,-1124 # 60d8 <malloc+0x45a>
     544:	00005097          	auipc	ra,0x5
     548:	67c080e7          	jalr	1660(ra) # 5bc0 <printf>
    exit(1);
     54c:	4505                	li	a0,1
     54e:	00005097          	auipc	ra,0x5
     552:	26e080e7          	jalr	622(ra) # 57bc <exit>
      if(n == MAXFILE - 1){
     556:	10b00793          	li	a5,267
     55a:	02f48a63          	beq	s1,a5,58e <writebig+0x13e>
  close(fd);
     55e:	854e                	mv	a0,s3
     560:	00005097          	auipc	ra,0x5
     564:	284080e7          	jalr	644(ra) # 57e4 <close>
  if(unlink("big") < 0){
     568:	00006517          	auipc	a0,0x6
     56c:	b2050513          	addi	a0,a0,-1248 # 6088 <malloc+0x40a>
     570:	00005097          	auipc	ra,0x5
     574:	29c080e7          	jalr	668(ra) # 580c <unlink>
     578:	06054963          	bltz	a0,5ea <writebig+0x19a>
}
     57c:	70e2                	ld	ra,56(sp)
     57e:	7442                	ld	s0,48(sp)
     580:	74a2                	ld	s1,40(sp)
     582:	7902                	ld	s2,32(sp)
     584:	69e2                	ld	s3,24(sp)
     586:	6a42                	ld	s4,16(sp)
     588:	6aa2                	ld	s5,8(sp)
     58a:	6121                	addi	sp,sp,64
     58c:	8082                	ret
        printf("%s: read only %d blocks from big", s, n);
     58e:	10b00613          	li	a2,267
     592:	85d6                	mv	a1,s5
     594:	00006517          	auipc	a0,0x6
     598:	b6450513          	addi	a0,a0,-1180 # 60f8 <malloc+0x47a>
     59c:	00005097          	auipc	ra,0x5
     5a0:	624080e7          	jalr	1572(ra) # 5bc0 <printf>
        exit(1);
     5a4:	4505                	li	a0,1
     5a6:	00005097          	auipc	ra,0x5
     5aa:	216080e7          	jalr	534(ra) # 57bc <exit>
      printf("%s: read failed %d\n", s, i);
     5ae:	862a                	mv	a2,a0
     5b0:	85d6                	mv	a1,s5
     5b2:	00006517          	auipc	a0,0x6
     5b6:	b6e50513          	addi	a0,a0,-1170 # 6120 <malloc+0x4a2>
     5ba:	00005097          	auipc	ra,0x5
     5be:	606080e7          	jalr	1542(ra) # 5bc0 <printf>
      exit(1);
     5c2:	4505                	li	a0,1
     5c4:	00005097          	auipc	ra,0x5
     5c8:	1f8080e7          	jalr	504(ra) # 57bc <exit>
      printf("%s: read content of block %d is %d\n", s,
     5cc:	8626                	mv	a2,s1
     5ce:	85d6                	mv	a1,s5
     5d0:	00006517          	auipc	a0,0x6
     5d4:	b6850513          	addi	a0,a0,-1176 # 6138 <malloc+0x4ba>
     5d8:	00005097          	auipc	ra,0x5
     5dc:	5e8080e7          	jalr	1512(ra) # 5bc0 <printf>
      exit(1);
     5e0:	4505                	li	a0,1
     5e2:	00005097          	auipc	ra,0x5
     5e6:	1da080e7          	jalr	474(ra) # 57bc <exit>
    printf("%s: unlink big failed\n", s);
     5ea:	85d6                	mv	a1,s5
     5ec:	00006517          	auipc	a0,0x6
     5f0:	b7450513          	addi	a0,a0,-1164 # 6160 <malloc+0x4e2>
     5f4:	00005097          	auipc	ra,0x5
     5f8:	5cc080e7          	jalr	1484(ra) # 5bc0 <printf>
    exit(1);
     5fc:	4505                	li	a0,1
     5fe:	00005097          	auipc	ra,0x5
     602:	1be080e7          	jalr	446(ra) # 57bc <exit>

0000000000000606 <pipe1>:
{
     606:	711d                	addi	sp,sp,-96
     608:	ec86                	sd	ra,88(sp)
     60a:	e8a2                	sd	s0,80(sp)
     60c:	e4a6                	sd	s1,72(sp)
     60e:	e0ca                	sd	s2,64(sp)
     610:	fc4e                	sd	s3,56(sp)
     612:	f852                	sd	s4,48(sp)
     614:	f456                	sd	s5,40(sp)
     616:	f05a                	sd	s6,32(sp)
     618:	ec5e                	sd	s7,24(sp)
     61a:	1080                	addi	s0,sp,96
     61c:	892a                	mv	s2,a0
  if(pipe(fds) != 0){
     61e:	fa840513          	addi	a0,s0,-88
     622:	00005097          	auipc	ra,0x5
     626:	1aa080e7          	jalr	426(ra) # 57cc <pipe>
     62a:	ed25                	bnez	a0,6a2 <pipe1+0x9c>
     62c:	84aa                	mv	s1,a0
  pid = fork();
     62e:	00005097          	auipc	ra,0x5
     632:	186080e7          	jalr	390(ra) # 57b4 <fork>
     636:	8a2a                	mv	s4,a0
  if(pid == 0){
     638:	c159                	beqz	a0,6be <pipe1+0xb8>
  } else if(pid > 0){
     63a:	16a05e63          	blez	a0,7b6 <pipe1+0x1b0>
    close(fds[1]);
     63e:	fac42503          	lw	a0,-84(s0)
     642:	00005097          	auipc	ra,0x5
     646:	1a2080e7          	jalr	418(ra) # 57e4 <close>
    total = 0;
     64a:	8a26                	mv	s4,s1
    cc = 1;
     64c:	4985                	li	s3,1
    while((n = read(fds[0], buf, cc)) > 0){
     64e:	0000ba97          	auipc	s5,0xb
     652:	292a8a93          	addi	s5,s5,658 # b8e0 <buf>
      if(cc > sizeof(buf))
     656:	6b0d                	lui	s6,0x3
    while((n = read(fds[0], buf, cc)) > 0){
     658:	864e                	mv	a2,s3
     65a:	85d6                	mv	a1,s5
     65c:	fa842503          	lw	a0,-88(s0)
     660:	00005097          	auipc	ra,0x5
     664:	174080e7          	jalr	372(ra) # 57d4 <read>
     668:	10a05263          	blez	a0,76c <pipe1+0x166>
      for(i = 0; i < n; i++){
     66c:	0000b717          	auipc	a4,0xb
     670:	27470713          	addi	a4,a4,628 # b8e0 <buf>
     674:	00a4863b          	addw	a2,s1,a0
        if((buf[i] & 0xff) != (seq++ & 0xff)){
     678:	00074683          	lbu	a3,0(a4)
     67c:	0ff4f793          	andi	a5,s1,255
     680:	2485                	addiw	s1,s1,1
     682:	0cf69163          	bne	a3,a5,744 <pipe1+0x13e>
      for(i = 0; i < n; i++){
     686:	0705                	addi	a4,a4,1
     688:	fec498e3          	bne	s1,a2,678 <pipe1+0x72>
      total += n;
     68c:	00aa0a3b          	addw	s4,s4,a0
      cc = cc * 2;
     690:	0019979b          	slliw	a5,s3,0x1
     694:	0007899b          	sext.w	s3,a5
      if(cc > sizeof(buf))
     698:	013b7363          	bgeu	s6,s3,69e <pipe1+0x98>
        cc = sizeof(buf);
     69c:	89da                	mv	s3,s6
        if((buf[i] & 0xff) != (seq++ & 0xff)){
     69e:	84b2                	mv	s1,a2
     6a0:	bf65                	j	658 <pipe1+0x52>
    printf("%s: pipe() failed\n", s);
     6a2:	85ca                	mv	a1,s2
     6a4:	00006517          	auipc	a0,0x6
     6a8:	ad450513          	addi	a0,a0,-1324 # 6178 <malloc+0x4fa>
     6ac:	00005097          	auipc	ra,0x5
     6b0:	514080e7          	jalr	1300(ra) # 5bc0 <printf>
    exit(1);
     6b4:	4505                	li	a0,1
     6b6:	00005097          	auipc	ra,0x5
     6ba:	106080e7          	jalr	262(ra) # 57bc <exit>
    close(fds[0]);
     6be:	fa842503          	lw	a0,-88(s0)
     6c2:	00005097          	auipc	ra,0x5
     6c6:	122080e7          	jalr	290(ra) # 57e4 <close>
    for(n = 0; n < N; n++){
     6ca:	0000bb17          	auipc	s6,0xb
     6ce:	216b0b13          	addi	s6,s6,534 # b8e0 <buf>
     6d2:	416004bb          	negw	s1,s6
     6d6:	0ff4f493          	andi	s1,s1,255
     6da:	409b0993          	addi	s3,s6,1033
      if(write(fds[1], buf, SZ) != SZ){
     6de:	8bda                	mv	s7,s6
    for(n = 0; n < N; n++){
     6e0:	6a85                	lui	s5,0x1
     6e2:	42da8a93          	addi	s5,s5,1069 # 142d <bigfile+0x67>
{
     6e6:	87da                	mv	a5,s6
        buf[i] = seq++;
     6e8:	0097873b          	addw	a4,a5,s1
     6ec:	00e78023          	sb	a4,0(a5)
      for(i = 0; i < SZ; i++)
     6f0:	0785                	addi	a5,a5,1
     6f2:	fef99be3          	bne	s3,a5,6e8 <pipe1+0xe2>
        buf[i] = seq++;
     6f6:	409a0a1b          	addiw	s4,s4,1033
      if(write(fds[1], buf, SZ) != SZ){
     6fa:	40900613          	li	a2,1033
     6fe:	85de                	mv	a1,s7
     700:	fac42503          	lw	a0,-84(s0)
     704:	00005097          	auipc	ra,0x5
     708:	0d8080e7          	jalr	216(ra) # 57dc <write>
     70c:	40900793          	li	a5,1033
     710:	00f51c63          	bne	a0,a5,728 <pipe1+0x122>
    for(n = 0; n < N; n++){
     714:	24a5                	addiw	s1,s1,9
     716:	0ff4f493          	andi	s1,s1,255
     71a:	fd5a16e3          	bne	s4,s5,6e6 <pipe1+0xe0>
    exit(0);
     71e:	4501                	li	a0,0
     720:	00005097          	auipc	ra,0x5
     724:	09c080e7          	jalr	156(ra) # 57bc <exit>
        printf("%s: pipe1 oops 1\n", s);
     728:	85ca                	mv	a1,s2
     72a:	00006517          	auipc	a0,0x6
     72e:	a6650513          	addi	a0,a0,-1434 # 6190 <malloc+0x512>
     732:	00005097          	auipc	ra,0x5
     736:	48e080e7          	jalr	1166(ra) # 5bc0 <printf>
        exit(1);
     73a:	4505                	li	a0,1
     73c:	00005097          	auipc	ra,0x5
     740:	080080e7          	jalr	128(ra) # 57bc <exit>
          printf("%s: pipe1 oops 2\n", s);
     744:	85ca                	mv	a1,s2
     746:	00006517          	auipc	a0,0x6
     74a:	a6250513          	addi	a0,a0,-1438 # 61a8 <malloc+0x52a>
     74e:	00005097          	auipc	ra,0x5
     752:	472080e7          	jalr	1138(ra) # 5bc0 <printf>
}
     756:	60e6                	ld	ra,88(sp)
     758:	6446                	ld	s0,80(sp)
     75a:	64a6                	ld	s1,72(sp)
     75c:	6906                	ld	s2,64(sp)
     75e:	79e2                	ld	s3,56(sp)
     760:	7a42                	ld	s4,48(sp)
     762:	7aa2                	ld	s5,40(sp)
     764:	7b02                	ld	s6,32(sp)
     766:	6be2                	ld	s7,24(sp)
     768:	6125                	addi	sp,sp,96
     76a:	8082                	ret
    if(total != N * SZ){
     76c:	6785                	lui	a5,0x1
     76e:	42d78793          	addi	a5,a5,1069 # 142d <bigfile+0x67>
     772:	02fa0063          	beq	s4,a5,792 <pipe1+0x18c>
      printf("%s: pipe1 oops 3 total %d\n", total);
     776:	85d2                	mv	a1,s4
     778:	00006517          	auipc	a0,0x6
     77c:	a4850513          	addi	a0,a0,-1464 # 61c0 <malloc+0x542>
     780:	00005097          	auipc	ra,0x5
     784:	440080e7          	jalr	1088(ra) # 5bc0 <printf>
      exit(1);
     788:	4505                	li	a0,1
     78a:	00005097          	auipc	ra,0x5
     78e:	032080e7          	jalr	50(ra) # 57bc <exit>
    close(fds[0]);
     792:	fa842503          	lw	a0,-88(s0)
     796:	00005097          	auipc	ra,0x5
     79a:	04e080e7          	jalr	78(ra) # 57e4 <close>
    wait(&xstatus);
     79e:	fa440513          	addi	a0,s0,-92
     7a2:	00005097          	auipc	ra,0x5
     7a6:	022080e7          	jalr	34(ra) # 57c4 <wait>
    exit(xstatus);
     7aa:	fa442503          	lw	a0,-92(s0)
     7ae:	00005097          	auipc	ra,0x5
     7b2:	00e080e7          	jalr	14(ra) # 57bc <exit>
    printf("%s: fork() failed\n", s);
     7b6:	85ca                	mv	a1,s2
     7b8:	00006517          	auipc	a0,0x6
     7bc:	a2850513          	addi	a0,a0,-1496 # 61e0 <malloc+0x562>
     7c0:	00005097          	auipc	ra,0x5
     7c4:	400080e7          	jalr	1024(ra) # 5bc0 <printf>
    exit(1);
     7c8:	4505                	li	a0,1
     7ca:	00005097          	auipc	ra,0x5
     7ce:	ff2080e7          	jalr	-14(ra) # 57bc <exit>

00000000000007d2 <bigdir>:
{
     7d2:	715d                	addi	sp,sp,-80
     7d4:	e486                	sd	ra,72(sp)
     7d6:	e0a2                	sd	s0,64(sp)
     7d8:	fc26                	sd	s1,56(sp)
     7da:	f84a                	sd	s2,48(sp)
     7dc:	f44e                	sd	s3,40(sp)
     7de:	f052                	sd	s4,32(sp)
     7e0:	ec56                	sd	s5,24(sp)
     7e2:	e85a                	sd	s6,16(sp)
     7e4:	0880                	addi	s0,sp,80
     7e6:	89aa                	mv	s3,a0
  unlink("bd");
     7e8:	00006517          	auipc	a0,0x6
     7ec:	a1050513          	addi	a0,a0,-1520 # 61f8 <malloc+0x57a>
     7f0:	00005097          	auipc	ra,0x5
     7f4:	01c080e7          	jalr	28(ra) # 580c <unlink>
  fd = open("bd", O_CREATE);
     7f8:	20000593          	li	a1,512
     7fc:	00006517          	auipc	a0,0x6
     800:	9fc50513          	addi	a0,a0,-1540 # 61f8 <malloc+0x57a>
     804:	00005097          	auipc	ra,0x5
     808:	ff8080e7          	jalr	-8(ra) # 57fc <open>
  if(fd < 0){
     80c:	0c054963          	bltz	a0,8de <bigdir+0x10c>
  close(fd);
     810:	00005097          	auipc	ra,0x5
     814:	fd4080e7          	jalr	-44(ra) # 57e4 <close>
  for(i = 0; i < N; i++){
     818:	4901                	li	s2,0
    name[0] = 'x';
     81a:	07800a93          	li	s5,120
    if(link("bd", name) != 0){
     81e:	00006a17          	auipc	s4,0x6
     822:	9daa0a13          	addi	s4,s4,-1574 # 61f8 <malloc+0x57a>
  for(i = 0; i < N; i++){
     826:	1f400b13          	li	s6,500
    name[0] = 'x';
     82a:	fb540823          	sb	s5,-80(s0)
    name[1] = '0' + (i / 64);
     82e:	41f9579b          	sraiw	a5,s2,0x1f
     832:	01a7d71b          	srliw	a4,a5,0x1a
     836:	012707bb          	addw	a5,a4,s2
     83a:	4067d69b          	sraiw	a3,a5,0x6
     83e:	0306869b          	addiw	a3,a3,48
     842:	fad408a3          	sb	a3,-79(s0)
    name[2] = '0' + (i % 64);
     846:	03f7f793          	andi	a5,a5,63
     84a:	9f99                	subw	a5,a5,a4
     84c:	0307879b          	addiw	a5,a5,48
     850:	faf40923          	sb	a5,-78(s0)
    name[3] = '\0';
     854:	fa0409a3          	sb	zero,-77(s0)
    if(link("bd", name) != 0){
     858:	fb040593          	addi	a1,s0,-80
     85c:	8552                	mv	a0,s4
     85e:	00005097          	auipc	ra,0x5
     862:	fbe080e7          	jalr	-66(ra) # 581c <link>
     866:	84aa                	mv	s1,a0
     868:	e949                	bnez	a0,8fa <bigdir+0x128>
  for(i = 0; i < N; i++){
     86a:	2905                	addiw	s2,s2,1
     86c:	fb691fe3          	bne	s2,s6,82a <bigdir+0x58>
  unlink("bd");
     870:	00006517          	auipc	a0,0x6
     874:	98850513          	addi	a0,a0,-1656 # 61f8 <malloc+0x57a>
     878:	00005097          	auipc	ra,0x5
     87c:	f94080e7          	jalr	-108(ra) # 580c <unlink>
    name[0] = 'x';
     880:	07800913          	li	s2,120
  for(i = 0; i < N; i++){
     884:	1f400a13          	li	s4,500
    name[0] = 'x';
     888:	fb240823          	sb	s2,-80(s0)
    name[1] = '0' + (i / 64);
     88c:	41f4d79b          	sraiw	a5,s1,0x1f
     890:	01a7d71b          	srliw	a4,a5,0x1a
     894:	009707bb          	addw	a5,a4,s1
     898:	4067d69b          	sraiw	a3,a5,0x6
     89c:	0306869b          	addiw	a3,a3,48
     8a0:	fad408a3          	sb	a3,-79(s0)
    name[2] = '0' + (i % 64);
     8a4:	03f7f793          	andi	a5,a5,63
     8a8:	9f99                	subw	a5,a5,a4
     8aa:	0307879b          	addiw	a5,a5,48
     8ae:	faf40923          	sb	a5,-78(s0)
    name[3] = '\0';
     8b2:	fa0409a3          	sb	zero,-77(s0)
    if(unlink(name) != 0){
     8b6:	fb040513          	addi	a0,s0,-80
     8ba:	00005097          	auipc	ra,0x5
     8be:	f52080e7          	jalr	-174(ra) # 580c <unlink>
     8c2:	ed21                	bnez	a0,91a <bigdir+0x148>
  for(i = 0; i < N; i++){
     8c4:	2485                	addiw	s1,s1,1
     8c6:	fd4491e3          	bne	s1,s4,888 <bigdir+0xb6>
}
     8ca:	60a6                	ld	ra,72(sp)
     8cc:	6406                	ld	s0,64(sp)
     8ce:	74e2                	ld	s1,56(sp)
     8d0:	7942                	ld	s2,48(sp)
     8d2:	79a2                	ld	s3,40(sp)
     8d4:	7a02                	ld	s4,32(sp)
     8d6:	6ae2                	ld	s5,24(sp)
     8d8:	6b42                	ld	s6,16(sp)
     8da:	6161                	addi	sp,sp,80
     8dc:	8082                	ret
    printf("%s: bigdir create failed\n", s);
     8de:	85ce                	mv	a1,s3
     8e0:	00006517          	auipc	a0,0x6
     8e4:	92050513          	addi	a0,a0,-1760 # 6200 <malloc+0x582>
     8e8:	00005097          	auipc	ra,0x5
     8ec:	2d8080e7          	jalr	728(ra) # 5bc0 <printf>
    exit(1);
     8f0:	4505                	li	a0,1
     8f2:	00005097          	auipc	ra,0x5
     8f6:	eca080e7          	jalr	-310(ra) # 57bc <exit>
      printf("%s: bigdir link(bd, %s) failed\n", s, name);
     8fa:	fb040613          	addi	a2,s0,-80
     8fe:	85ce                	mv	a1,s3
     900:	00006517          	auipc	a0,0x6
     904:	92050513          	addi	a0,a0,-1760 # 6220 <malloc+0x5a2>
     908:	00005097          	auipc	ra,0x5
     90c:	2b8080e7          	jalr	696(ra) # 5bc0 <printf>
      exit(1);
     910:	4505                	li	a0,1
     912:	00005097          	auipc	ra,0x5
     916:	eaa080e7          	jalr	-342(ra) # 57bc <exit>
      printf("%s: bigdir unlink failed", s);
     91a:	85ce                	mv	a1,s3
     91c:	00006517          	auipc	a0,0x6
     920:	92450513          	addi	a0,a0,-1756 # 6240 <malloc+0x5c2>
     924:	00005097          	auipc	ra,0x5
     928:	29c080e7          	jalr	668(ra) # 5bc0 <printf>
      exit(1);
     92c:	4505                	li	a0,1
     92e:	00005097          	auipc	ra,0x5
     932:	e8e080e7          	jalr	-370(ra) # 57bc <exit>

0000000000000936 <openiputtest>:
{
     936:	7179                	addi	sp,sp,-48
     938:	f406                	sd	ra,40(sp)
     93a:	f022                	sd	s0,32(sp)
     93c:	ec26                	sd	s1,24(sp)
     93e:	1800                	addi	s0,sp,48
     940:	84aa                	mv	s1,a0
  if(mkdir("oidir") < 0){
     942:	00006517          	auipc	a0,0x6
     946:	91e50513          	addi	a0,a0,-1762 # 6260 <malloc+0x5e2>
     94a:	00005097          	auipc	ra,0x5
     94e:	eda080e7          	jalr	-294(ra) # 5824 <mkdir>
     952:	04054263          	bltz	a0,996 <openiputtest+0x60>
  pid = fork();
     956:	00005097          	auipc	ra,0x5
     95a:	e5e080e7          	jalr	-418(ra) # 57b4 <fork>
  if(pid < 0){
     95e:	04054a63          	bltz	a0,9b2 <openiputtest+0x7c>
  if(pid == 0){
     962:	e93d                	bnez	a0,9d8 <openiputtest+0xa2>
    int fd = open("oidir", O_RDWR);
     964:	4589                	li	a1,2
     966:	00006517          	auipc	a0,0x6
     96a:	8fa50513          	addi	a0,a0,-1798 # 6260 <malloc+0x5e2>
     96e:	00005097          	auipc	ra,0x5
     972:	e8e080e7          	jalr	-370(ra) # 57fc <open>
    if(fd >= 0){
     976:	04054c63          	bltz	a0,9ce <openiputtest+0x98>
      printf("%s: open directory for write succeeded\n", s);
     97a:	85a6                	mv	a1,s1
     97c:	00006517          	auipc	a0,0x6
     980:	90450513          	addi	a0,a0,-1788 # 6280 <malloc+0x602>
     984:	00005097          	auipc	ra,0x5
     988:	23c080e7          	jalr	572(ra) # 5bc0 <printf>
      exit(1);
     98c:	4505                	li	a0,1
     98e:	00005097          	auipc	ra,0x5
     992:	e2e080e7          	jalr	-466(ra) # 57bc <exit>
    printf("%s: mkdir oidir failed\n", s);
     996:	85a6                	mv	a1,s1
     998:	00006517          	auipc	a0,0x6
     99c:	8d050513          	addi	a0,a0,-1840 # 6268 <malloc+0x5ea>
     9a0:	00005097          	auipc	ra,0x5
     9a4:	220080e7          	jalr	544(ra) # 5bc0 <printf>
    exit(1);
     9a8:	4505                	li	a0,1
     9aa:	00005097          	auipc	ra,0x5
     9ae:	e12080e7          	jalr	-494(ra) # 57bc <exit>
    printf("%s: fork failed\n", s);
     9b2:	85a6                	mv	a1,s1
     9b4:	00005517          	auipc	a0,0x5
     9b8:	4cc50513          	addi	a0,a0,1228 # 5e80 <malloc+0x202>
     9bc:	00005097          	auipc	ra,0x5
     9c0:	204080e7          	jalr	516(ra) # 5bc0 <printf>
    exit(1);
     9c4:	4505                	li	a0,1
     9c6:	00005097          	auipc	ra,0x5
     9ca:	df6080e7          	jalr	-522(ra) # 57bc <exit>
    exit(0);
     9ce:	4501                	li	a0,0
     9d0:	00005097          	auipc	ra,0x5
     9d4:	dec080e7          	jalr	-532(ra) # 57bc <exit>
  sleep(1);
     9d8:	4505                	li	a0,1
     9da:	00005097          	auipc	ra,0x5
     9de:	e72080e7          	jalr	-398(ra) # 584c <sleep>
  if(unlink("oidir") != 0){
     9e2:	00006517          	auipc	a0,0x6
     9e6:	87e50513          	addi	a0,a0,-1922 # 6260 <malloc+0x5e2>
     9ea:	00005097          	auipc	ra,0x5
     9ee:	e22080e7          	jalr	-478(ra) # 580c <unlink>
     9f2:	cd19                	beqz	a0,a10 <openiputtest+0xda>
    printf("%s: unlink failed\n", s);
     9f4:	85a6                	mv	a1,s1
     9f6:	00006517          	auipc	a0,0x6
     9fa:	8b250513          	addi	a0,a0,-1870 # 62a8 <malloc+0x62a>
     9fe:	00005097          	auipc	ra,0x5
     a02:	1c2080e7          	jalr	450(ra) # 5bc0 <printf>
    exit(1);
     a06:	4505                	li	a0,1
     a08:	00005097          	auipc	ra,0x5
     a0c:	db4080e7          	jalr	-588(ra) # 57bc <exit>
  wait(&xstatus);
     a10:	fdc40513          	addi	a0,s0,-36
     a14:	00005097          	auipc	ra,0x5
     a18:	db0080e7          	jalr	-592(ra) # 57c4 <wait>
  exit(xstatus);
     a1c:	fdc42503          	lw	a0,-36(s0)
     a20:	00005097          	auipc	ra,0x5
     a24:	d9c080e7          	jalr	-612(ra) # 57bc <exit>

0000000000000a28 <fourteen>:
{
     a28:	1101                	addi	sp,sp,-32
     a2a:	ec06                	sd	ra,24(sp)
     a2c:	e822                	sd	s0,16(sp)
     a2e:	e426                	sd	s1,8(sp)
     a30:	1000                	addi	s0,sp,32
     a32:	84aa                	mv	s1,a0
  if(mkdir("12345678901234") != 0){
     a34:	00006517          	auipc	a0,0x6
     a38:	a5c50513          	addi	a0,a0,-1444 # 6490 <malloc+0x812>
     a3c:	00005097          	auipc	ra,0x5
     a40:	de8080e7          	jalr	-536(ra) # 5824 <mkdir>
     a44:	e165                	bnez	a0,b24 <fourteen+0xfc>
  if(mkdir("12345678901234/123456789012345") != 0){
     a46:	00006517          	auipc	a0,0x6
     a4a:	8a250513          	addi	a0,a0,-1886 # 62e8 <malloc+0x66a>
     a4e:	00005097          	auipc	ra,0x5
     a52:	dd6080e7          	jalr	-554(ra) # 5824 <mkdir>
     a56:	e56d                	bnez	a0,b40 <fourteen+0x118>
  fd = open("123456789012345/123456789012345/123456789012345", O_CREATE);
     a58:	20000593          	li	a1,512
     a5c:	00006517          	auipc	a0,0x6
     a60:	8e450513          	addi	a0,a0,-1820 # 6340 <malloc+0x6c2>
     a64:	00005097          	auipc	ra,0x5
     a68:	d98080e7          	jalr	-616(ra) # 57fc <open>
  if(fd < 0){
     a6c:	0e054863          	bltz	a0,b5c <fourteen+0x134>
  close(fd);
     a70:	00005097          	auipc	ra,0x5
     a74:	d74080e7          	jalr	-652(ra) # 57e4 <close>
  fd = open("12345678901234/12345678901234/12345678901234", 0);
     a78:	4581                	li	a1,0
     a7a:	00006517          	auipc	a0,0x6
     a7e:	93e50513          	addi	a0,a0,-1730 # 63b8 <malloc+0x73a>
     a82:	00005097          	auipc	ra,0x5
     a86:	d7a080e7          	jalr	-646(ra) # 57fc <open>
  if(fd < 0){
     a8a:	0e054763          	bltz	a0,b78 <fourteen+0x150>
  close(fd);
     a8e:	00005097          	auipc	ra,0x5
     a92:	d56080e7          	jalr	-682(ra) # 57e4 <close>
  if(mkdir("12345678901234/12345678901234") == 0){
     a96:	00006517          	auipc	a0,0x6
     a9a:	99250513          	addi	a0,a0,-1646 # 6428 <malloc+0x7aa>
     a9e:	00005097          	auipc	ra,0x5
     aa2:	d86080e7          	jalr	-634(ra) # 5824 <mkdir>
     aa6:	c57d                	beqz	a0,b94 <fourteen+0x16c>
  if(mkdir("123456789012345/12345678901234") == 0){
     aa8:	00006517          	auipc	a0,0x6
     aac:	9d850513          	addi	a0,a0,-1576 # 6480 <malloc+0x802>
     ab0:	00005097          	auipc	ra,0x5
     ab4:	d74080e7          	jalr	-652(ra) # 5824 <mkdir>
     ab8:	cd65                	beqz	a0,bb0 <fourteen+0x188>
  unlink("123456789012345/12345678901234");
     aba:	00006517          	auipc	a0,0x6
     abe:	9c650513          	addi	a0,a0,-1594 # 6480 <malloc+0x802>
     ac2:	00005097          	auipc	ra,0x5
     ac6:	d4a080e7          	jalr	-694(ra) # 580c <unlink>
  unlink("12345678901234/12345678901234");
     aca:	00006517          	auipc	a0,0x6
     ace:	95e50513          	addi	a0,a0,-1698 # 6428 <malloc+0x7aa>
     ad2:	00005097          	auipc	ra,0x5
     ad6:	d3a080e7          	jalr	-710(ra) # 580c <unlink>
  unlink("12345678901234/12345678901234/12345678901234");
     ada:	00006517          	auipc	a0,0x6
     ade:	8de50513          	addi	a0,a0,-1826 # 63b8 <malloc+0x73a>
     ae2:	00005097          	auipc	ra,0x5
     ae6:	d2a080e7          	jalr	-726(ra) # 580c <unlink>
  unlink("123456789012345/123456789012345/123456789012345");
     aea:	00006517          	auipc	a0,0x6
     aee:	85650513          	addi	a0,a0,-1962 # 6340 <malloc+0x6c2>
     af2:	00005097          	auipc	ra,0x5
     af6:	d1a080e7          	jalr	-742(ra) # 580c <unlink>
  unlink("12345678901234/123456789012345");
     afa:	00005517          	auipc	a0,0x5
     afe:	7ee50513          	addi	a0,a0,2030 # 62e8 <malloc+0x66a>
     b02:	00005097          	auipc	ra,0x5
     b06:	d0a080e7          	jalr	-758(ra) # 580c <unlink>
  unlink("12345678901234");
     b0a:	00006517          	auipc	a0,0x6
     b0e:	98650513          	addi	a0,a0,-1658 # 6490 <malloc+0x812>
     b12:	00005097          	auipc	ra,0x5
     b16:	cfa080e7          	jalr	-774(ra) # 580c <unlink>
}
     b1a:	60e2                	ld	ra,24(sp)
     b1c:	6442                	ld	s0,16(sp)
     b1e:	64a2                	ld	s1,8(sp)
     b20:	6105                	addi	sp,sp,32
     b22:	8082                	ret
    printf("%s: mkdir 12345678901234 failed\n", s);
     b24:	85a6                	mv	a1,s1
     b26:	00005517          	auipc	a0,0x5
     b2a:	79a50513          	addi	a0,a0,1946 # 62c0 <malloc+0x642>
     b2e:	00005097          	auipc	ra,0x5
     b32:	092080e7          	jalr	146(ra) # 5bc0 <printf>
    exit(1);
     b36:	4505                	li	a0,1
     b38:	00005097          	auipc	ra,0x5
     b3c:	c84080e7          	jalr	-892(ra) # 57bc <exit>
    printf("%s: mkdir 12345678901234/123456789012345 failed\n", s);
     b40:	85a6                	mv	a1,s1
     b42:	00005517          	auipc	a0,0x5
     b46:	7c650513          	addi	a0,a0,1990 # 6308 <malloc+0x68a>
     b4a:	00005097          	auipc	ra,0x5
     b4e:	076080e7          	jalr	118(ra) # 5bc0 <printf>
    exit(1);
     b52:	4505                	li	a0,1
     b54:	00005097          	auipc	ra,0x5
     b58:	c68080e7          	jalr	-920(ra) # 57bc <exit>
    printf("%s: create 123456789012345/123456789012345/123456789012345 failed\n", s);
     b5c:	85a6                	mv	a1,s1
     b5e:	00006517          	auipc	a0,0x6
     b62:	81250513          	addi	a0,a0,-2030 # 6370 <malloc+0x6f2>
     b66:	00005097          	auipc	ra,0x5
     b6a:	05a080e7          	jalr	90(ra) # 5bc0 <printf>
    exit(1);
     b6e:	4505                	li	a0,1
     b70:	00005097          	auipc	ra,0x5
     b74:	c4c080e7          	jalr	-948(ra) # 57bc <exit>
    printf("%s: open 12345678901234/12345678901234/12345678901234 failed\n", s);
     b78:	85a6                	mv	a1,s1
     b7a:	00006517          	auipc	a0,0x6
     b7e:	86e50513          	addi	a0,a0,-1938 # 63e8 <malloc+0x76a>
     b82:	00005097          	auipc	ra,0x5
     b86:	03e080e7          	jalr	62(ra) # 5bc0 <printf>
    exit(1);
     b8a:	4505                	li	a0,1
     b8c:	00005097          	auipc	ra,0x5
     b90:	c30080e7          	jalr	-976(ra) # 57bc <exit>
    printf("%s: mkdir 12345678901234/12345678901234 succeeded!\n", s);
     b94:	85a6                	mv	a1,s1
     b96:	00006517          	auipc	a0,0x6
     b9a:	8b250513          	addi	a0,a0,-1870 # 6448 <malloc+0x7ca>
     b9e:	00005097          	auipc	ra,0x5
     ba2:	022080e7          	jalr	34(ra) # 5bc0 <printf>
    exit(1);
     ba6:	4505                	li	a0,1
     ba8:	00005097          	auipc	ra,0x5
     bac:	c14080e7          	jalr	-1004(ra) # 57bc <exit>
    printf("%s: mkdir 12345678901234/123456789012345 succeeded!\n", s);
     bb0:	85a6                	mv	a1,s1
     bb2:	00006517          	auipc	a0,0x6
     bb6:	8ee50513          	addi	a0,a0,-1810 # 64a0 <malloc+0x822>
     bba:	00005097          	auipc	ra,0x5
     bbe:	006080e7          	jalr	6(ra) # 5bc0 <printf>
    exit(1);
     bc2:	4505                	li	a0,1
     bc4:	00005097          	auipc	ra,0x5
     bc8:	bf8080e7          	jalr	-1032(ra) # 57bc <exit>

0000000000000bcc <iputtest>:
{
     bcc:	1101                	addi	sp,sp,-32
     bce:	ec06                	sd	ra,24(sp)
     bd0:	e822                	sd	s0,16(sp)
     bd2:	e426                	sd	s1,8(sp)
     bd4:	1000                	addi	s0,sp,32
     bd6:	84aa                	mv	s1,a0
  if(mkdir("iputdir") < 0){
     bd8:	00006517          	auipc	a0,0x6
     bdc:	90050513          	addi	a0,a0,-1792 # 64d8 <malloc+0x85a>
     be0:	00005097          	auipc	ra,0x5
     be4:	c44080e7          	jalr	-956(ra) # 5824 <mkdir>
     be8:	04054563          	bltz	a0,c32 <iputtest+0x66>
  if(chdir("iputdir") < 0){
     bec:	00006517          	auipc	a0,0x6
     bf0:	8ec50513          	addi	a0,a0,-1812 # 64d8 <malloc+0x85a>
     bf4:	00005097          	auipc	ra,0x5
     bf8:	c38080e7          	jalr	-968(ra) # 582c <chdir>
     bfc:	04054963          	bltz	a0,c4e <iputtest+0x82>
  if(unlink("../iputdir") < 0){
     c00:	00006517          	auipc	a0,0x6
     c04:	91850513          	addi	a0,a0,-1768 # 6518 <malloc+0x89a>
     c08:	00005097          	auipc	ra,0x5
     c0c:	c04080e7          	jalr	-1020(ra) # 580c <unlink>
     c10:	04054d63          	bltz	a0,c6a <iputtest+0x9e>
  if(chdir("/") < 0){
     c14:	00006517          	auipc	a0,0x6
     c18:	93450513          	addi	a0,a0,-1740 # 6548 <malloc+0x8ca>
     c1c:	00005097          	auipc	ra,0x5
     c20:	c10080e7          	jalr	-1008(ra) # 582c <chdir>
     c24:	06054163          	bltz	a0,c86 <iputtest+0xba>
}
     c28:	60e2                	ld	ra,24(sp)
     c2a:	6442                	ld	s0,16(sp)
     c2c:	64a2                	ld	s1,8(sp)
     c2e:	6105                	addi	sp,sp,32
     c30:	8082                	ret
    printf("%s: mkdir failed\n", s);
     c32:	85a6                	mv	a1,s1
     c34:	00006517          	auipc	a0,0x6
     c38:	8ac50513          	addi	a0,a0,-1876 # 64e0 <malloc+0x862>
     c3c:	00005097          	auipc	ra,0x5
     c40:	f84080e7          	jalr	-124(ra) # 5bc0 <printf>
    exit(1);
     c44:	4505                	li	a0,1
     c46:	00005097          	auipc	ra,0x5
     c4a:	b76080e7          	jalr	-1162(ra) # 57bc <exit>
    printf("%s: chdir iputdir failed\n", s);
     c4e:	85a6                	mv	a1,s1
     c50:	00006517          	auipc	a0,0x6
     c54:	8a850513          	addi	a0,a0,-1880 # 64f8 <malloc+0x87a>
     c58:	00005097          	auipc	ra,0x5
     c5c:	f68080e7          	jalr	-152(ra) # 5bc0 <printf>
    exit(1);
     c60:	4505                	li	a0,1
     c62:	00005097          	auipc	ra,0x5
     c66:	b5a080e7          	jalr	-1190(ra) # 57bc <exit>
    printf("%s: unlink ../iputdir failed\n", s);
     c6a:	85a6                	mv	a1,s1
     c6c:	00006517          	auipc	a0,0x6
     c70:	8bc50513          	addi	a0,a0,-1860 # 6528 <malloc+0x8aa>
     c74:	00005097          	auipc	ra,0x5
     c78:	f4c080e7          	jalr	-180(ra) # 5bc0 <printf>
    exit(1);
     c7c:	4505                	li	a0,1
     c7e:	00005097          	auipc	ra,0x5
     c82:	b3e080e7          	jalr	-1218(ra) # 57bc <exit>
    printf("%s: chdir / failed\n", s);
     c86:	85a6                	mv	a1,s1
     c88:	00006517          	auipc	a0,0x6
     c8c:	8c850513          	addi	a0,a0,-1848 # 6550 <malloc+0x8d2>
     c90:	00005097          	auipc	ra,0x5
     c94:	f30080e7          	jalr	-208(ra) # 5bc0 <printf>
    exit(1);
     c98:	4505                	li	a0,1
     c9a:	00005097          	auipc	ra,0x5
     c9e:	b22080e7          	jalr	-1246(ra) # 57bc <exit>

0000000000000ca2 <exitiputtest>:
{
     ca2:	7179                	addi	sp,sp,-48
     ca4:	f406                	sd	ra,40(sp)
     ca6:	f022                	sd	s0,32(sp)
     ca8:	ec26                	sd	s1,24(sp)
     caa:	1800                	addi	s0,sp,48
     cac:	84aa                	mv	s1,a0
  pid = fork();
     cae:	00005097          	auipc	ra,0x5
     cb2:	b06080e7          	jalr	-1274(ra) # 57b4 <fork>
  if(pid < 0){
     cb6:	04054663          	bltz	a0,d02 <exitiputtest+0x60>
  if(pid == 0){
     cba:	ed45                	bnez	a0,d72 <exitiputtest+0xd0>
    if(mkdir("iputdir") < 0){
     cbc:	00006517          	auipc	a0,0x6
     cc0:	81c50513          	addi	a0,a0,-2020 # 64d8 <malloc+0x85a>
     cc4:	00005097          	auipc	ra,0x5
     cc8:	b60080e7          	jalr	-1184(ra) # 5824 <mkdir>
     ccc:	04054963          	bltz	a0,d1e <exitiputtest+0x7c>
    if(chdir("iputdir") < 0){
     cd0:	00006517          	auipc	a0,0x6
     cd4:	80850513          	addi	a0,a0,-2040 # 64d8 <malloc+0x85a>
     cd8:	00005097          	auipc	ra,0x5
     cdc:	b54080e7          	jalr	-1196(ra) # 582c <chdir>
     ce0:	04054d63          	bltz	a0,d3a <exitiputtest+0x98>
    if(unlink("../iputdir") < 0){
     ce4:	00006517          	auipc	a0,0x6
     ce8:	83450513          	addi	a0,a0,-1996 # 6518 <malloc+0x89a>
     cec:	00005097          	auipc	ra,0x5
     cf0:	b20080e7          	jalr	-1248(ra) # 580c <unlink>
     cf4:	06054163          	bltz	a0,d56 <exitiputtest+0xb4>
    exit(0);
     cf8:	4501                	li	a0,0
     cfa:	00005097          	auipc	ra,0x5
     cfe:	ac2080e7          	jalr	-1342(ra) # 57bc <exit>
    printf("%s: fork failed\n", s);
     d02:	85a6                	mv	a1,s1
     d04:	00005517          	auipc	a0,0x5
     d08:	17c50513          	addi	a0,a0,380 # 5e80 <malloc+0x202>
     d0c:	00005097          	auipc	ra,0x5
     d10:	eb4080e7          	jalr	-332(ra) # 5bc0 <printf>
    exit(1);
     d14:	4505                	li	a0,1
     d16:	00005097          	auipc	ra,0x5
     d1a:	aa6080e7          	jalr	-1370(ra) # 57bc <exit>
      printf("%s: mkdir failed\n", s);
     d1e:	85a6                	mv	a1,s1
     d20:	00005517          	auipc	a0,0x5
     d24:	7c050513          	addi	a0,a0,1984 # 64e0 <malloc+0x862>
     d28:	00005097          	auipc	ra,0x5
     d2c:	e98080e7          	jalr	-360(ra) # 5bc0 <printf>
      exit(1);
     d30:	4505                	li	a0,1
     d32:	00005097          	auipc	ra,0x5
     d36:	a8a080e7          	jalr	-1398(ra) # 57bc <exit>
      printf("%s: child chdir failed\n", s);
     d3a:	85a6                	mv	a1,s1
     d3c:	00006517          	auipc	a0,0x6
     d40:	82c50513          	addi	a0,a0,-2004 # 6568 <malloc+0x8ea>
     d44:	00005097          	auipc	ra,0x5
     d48:	e7c080e7          	jalr	-388(ra) # 5bc0 <printf>
      exit(1);
     d4c:	4505                	li	a0,1
     d4e:	00005097          	auipc	ra,0x5
     d52:	a6e080e7          	jalr	-1426(ra) # 57bc <exit>
      printf("%s: unlink ../iputdir failed\n", s);
     d56:	85a6                	mv	a1,s1
     d58:	00005517          	auipc	a0,0x5
     d5c:	7d050513          	addi	a0,a0,2000 # 6528 <malloc+0x8aa>
     d60:	00005097          	auipc	ra,0x5
     d64:	e60080e7          	jalr	-416(ra) # 5bc0 <printf>
      exit(1);
     d68:	4505                	li	a0,1
     d6a:	00005097          	auipc	ra,0x5
     d6e:	a52080e7          	jalr	-1454(ra) # 57bc <exit>
  wait(&xstatus);
     d72:	fdc40513          	addi	a0,s0,-36
     d76:	00005097          	auipc	ra,0x5
     d7a:	a4e080e7          	jalr	-1458(ra) # 57c4 <wait>
  exit(xstatus);
     d7e:	fdc42503          	lw	a0,-36(s0)
     d82:	00005097          	auipc	ra,0x5
     d86:	a3a080e7          	jalr	-1478(ra) # 57bc <exit>

0000000000000d8a <rmdot>:
{
     d8a:	1101                	addi	sp,sp,-32
     d8c:	ec06                	sd	ra,24(sp)
     d8e:	e822                	sd	s0,16(sp)
     d90:	e426                	sd	s1,8(sp)
     d92:	1000                	addi	s0,sp,32
     d94:	84aa                	mv	s1,a0
  if(mkdir("dots") != 0){
     d96:	00005517          	auipc	a0,0x5
     d9a:	7ea50513          	addi	a0,a0,2026 # 6580 <malloc+0x902>
     d9e:	00005097          	auipc	ra,0x5
     da2:	a86080e7          	jalr	-1402(ra) # 5824 <mkdir>
     da6:	e549                	bnez	a0,e30 <rmdot+0xa6>
  if(chdir("dots") != 0){
     da8:	00005517          	auipc	a0,0x5
     dac:	7d850513          	addi	a0,a0,2008 # 6580 <malloc+0x902>
     db0:	00005097          	auipc	ra,0x5
     db4:	a7c080e7          	jalr	-1412(ra) # 582c <chdir>
     db8:	e951                	bnez	a0,e4c <rmdot+0xc2>
  if(unlink(".") == 0){
     dba:	00005517          	auipc	a0,0x5
     dbe:	7fe50513          	addi	a0,a0,2046 # 65b8 <malloc+0x93a>
     dc2:	00005097          	auipc	ra,0x5
     dc6:	a4a080e7          	jalr	-1462(ra) # 580c <unlink>
     dca:	cd59                	beqz	a0,e68 <rmdot+0xde>
  if(unlink("..") == 0){
     dcc:	00006517          	auipc	a0,0x6
     dd0:	80c50513          	addi	a0,a0,-2036 # 65d8 <malloc+0x95a>
     dd4:	00005097          	auipc	ra,0x5
     dd8:	a38080e7          	jalr	-1480(ra) # 580c <unlink>
     ddc:	c545                	beqz	a0,e84 <rmdot+0xfa>
  if(chdir("/") != 0){
     dde:	00005517          	auipc	a0,0x5
     de2:	76a50513          	addi	a0,a0,1898 # 6548 <malloc+0x8ca>
     de6:	00005097          	auipc	ra,0x5
     dea:	a46080e7          	jalr	-1466(ra) # 582c <chdir>
     dee:	e94d                	bnez	a0,ea0 <rmdot+0x116>
  if(unlink("dots/.") == 0){
     df0:	00006517          	auipc	a0,0x6
     df4:	80850513          	addi	a0,a0,-2040 # 65f8 <malloc+0x97a>
     df8:	00005097          	auipc	ra,0x5
     dfc:	a14080e7          	jalr	-1516(ra) # 580c <unlink>
     e00:	cd55                	beqz	a0,ebc <rmdot+0x132>
  if(unlink("dots/..") == 0){
     e02:	00006517          	auipc	a0,0x6
     e06:	81e50513          	addi	a0,a0,-2018 # 6620 <malloc+0x9a2>
     e0a:	00005097          	auipc	ra,0x5
     e0e:	a02080e7          	jalr	-1534(ra) # 580c <unlink>
     e12:	c179                	beqz	a0,ed8 <rmdot+0x14e>
  if(unlink("dots") != 0){
     e14:	00005517          	auipc	a0,0x5
     e18:	76c50513          	addi	a0,a0,1900 # 6580 <malloc+0x902>
     e1c:	00005097          	auipc	ra,0x5
     e20:	9f0080e7          	jalr	-1552(ra) # 580c <unlink>
     e24:	e961                	bnez	a0,ef4 <rmdot+0x16a>
}
     e26:	60e2                	ld	ra,24(sp)
     e28:	6442                	ld	s0,16(sp)
     e2a:	64a2                	ld	s1,8(sp)
     e2c:	6105                	addi	sp,sp,32
     e2e:	8082                	ret
    printf("%s: mkdir dots failed\n", s);
     e30:	85a6                	mv	a1,s1
     e32:	00005517          	auipc	a0,0x5
     e36:	75650513          	addi	a0,a0,1878 # 6588 <malloc+0x90a>
     e3a:	00005097          	auipc	ra,0x5
     e3e:	d86080e7          	jalr	-634(ra) # 5bc0 <printf>
    exit(1);
     e42:	4505                	li	a0,1
     e44:	00005097          	auipc	ra,0x5
     e48:	978080e7          	jalr	-1672(ra) # 57bc <exit>
    printf("%s: chdir dots failed\n", s);
     e4c:	85a6                	mv	a1,s1
     e4e:	00005517          	auipc	a0,0x5
     e52:	75250513          	addi	a0,a0,1874 # 65a0 <malloc+0x922>
     e56:	00005097          	auipc	ra,0x5
     e5a:	d6a080e7          	jalr	-662(ra) # 5bc0 <printf>
    exit(1);
     e5e:	4505                	li	a0,1
     e60:	00005097          	auipc	ra,0x5
     e64:	95c080e7          	jalr	-1700(ra) # 57bc <exit>
    printf("%s: rm . worked!\n", s);
     e68:	85a6                	mv	a1,s1
     e6a:	00005517          	auipc	a0,0x5
     e6e:	75650513          	addi	a0,a0,1878 # 65c0 <malloc+0x942>
     e72:	00005097          	auipc	ra,0x5
     e76:	d4e080e7          	jalr	-690(ra) # 5bc0 <printf>
    exit(1);
     e7a:	4505                	li	a0,1
     e7c:	00005097          	auipc	ra,0x5
     e80:	940080e7          	jalr	-1728(ra) # 57bc <exit>
    printf("%s: rm .. worked!\n", s);
     e84:	85a6                	mv	a1,s1
     e86:	00005517          	auipc	a0,0x5
     e8a:	75a50513          	addi	a0,a0,1882 # 65e0 <malloc+0x962>
     e8e:	00005097          	auipc	ra,0x5
     e92:	d32080e7          	jalr	-718(ra) # 5bc0 <printf>
    exit(1);
     e96:	4505                	li	a0,1
     e98:	00005097          	auipc	ra,0x5
     e9c:	924080e7          	jalr	-1756(ra) # 57bc <exit>
    printf("%s: chdir / failed\n", s);
     ea0:	85a6                	mv	a1,s1
     ea2:	00005517          	auipc	a0,0x5
     ea6:	6ae50513          	addi	a0,a0,1710 # 6550 <malloc+0x8d2>
     eaa:	00005097          	auipc	ra,0x5
     eae:	d16080e7          	jalr	-746(ra) # 5bc0 <printf>
    exit(1);
     eb2:	4505                	li	a0,1
     eb4:	00005097          	auipc	ra,0x5
     eb8:	908080e7          	jalr	-1784(ra) # 57bc <exit>
    printf("%s: unlink dots/. worked!\n", s);
     ebc:	85a6                	mv	a1,s1
     ebe:	00005517          	auipc	a0,0x5
     ec2:	74250513          	addi	a0,a0,1858 # 6600 <malloc+0x982>
     ec6:	00005097          	auipc	ra,0x5
     eca:	cfa080e7          	jalr	-774(ra) # 5bc0 <printf>
    exit(1);
     ece:	4505                	li	a0,1
     ed0:	00005097          	auipc	ra,0x5
     ed4:	8ec080e7          	jalr	-1812(ra) # 57bc <exit>
    printf("%s: unlink dots/.. worked!\n", s);
     ed8:	85a6                	mv	a1,s1
     eda:	00005517          	auipc	a0,0x5
     ede:	74e50513          	addi	a0,a0,1870 # 6628 <malloc+0x9aa>
     ee2:	00005097          	auipc	ra,0x5
     ee6:	cde080e7          	jalr	-802(ra) # 5bc0 <printf>
    exit(1);
     eea:	4505                	li	a0,1
     eec:	00005097          	auipc	ra,0x5
     ef0:	8d0080e7          	jalr	-1840(ra) # 57bc <exit>
    printf("%s: unlink dots failed!\n", s);
     ef4:	85a6                	mv	a1,s1
     ef6:	00005517          	auipc	a0,0x5
     efa:	75250513          	addi	a0,a0,1874 # 6648 <malloc+0x9ca>
     efe:	00005097          	auipc	ra,0x5
     f02:	cc2080e7          	jalr	-830(ra) # 5bc0 <printf>
    exit(1);
     f06:	4505                	li	a0,1
     f08:	00005097          	auipc	ra,0x5
     f0c:	8b4080e7          	jalr	-1868(ra) # 57bc <exit>

0000000000000f10 <dirfile>:
{
     f10:	1101                	addi	sp,sp,-32
     f12:	ec06                	sd	ra,24(sp)
     f14:	e822                	sd	s0,16(sp)
     f16:	e426                	sd	s1,8(sp)
     f18:	e04a                	sd	s2,0(sp)
     f1a:	1000                	addi	s0,sp,32
     f1c:	892a                	mv	s2,a0
  fd = open("dirfile", O_CREATE);
     f1e:	20000593          	li	a1,512
     f22:	00005517          	auipc	a0,0x5
     f26:	f1e50513          	addi	a0,a0,-226 # 5e40 <malloc+0x1c2>
     f2a:	00005097          	auipc	ra,0x5
     f2e:	8d2080e7          	jalr	-1838(ra) # 57fc <open>
  if(fd < 0){
     f32:	0e054d63          	bltz	a0,102c <dirfile+0x11c>
  close(fd);
     f36:	00005097          	auipc	ra,0x5
     f3a:	8ae080e7          	jalr	-1874(ra) # 57e4 <close>
  if(chdir("dirfile") == 0){
     f3e:	00005517          	auipc	a0,0x5
     f42:	f0250513          	addi	a0,a0,-254 # 5e40 <malloc+0x1c2>
     f46:	00005097          	auipc	ra,0x5
     f4a:	8e6080e7          	jalr	-1818(ra) # 582c <chdir>
     f4e:	cd6d                	beqz	a0,1048 <dirfile+0x138>
  fd = open("dirfile/xx", 0);
     f50:	4581                	li	a1,0
     f52:	00005517          	auipc	a0,0x5
     f56:	75650513          	addi	a0,a0,1878 # 66a8 <malloc+0xa2a>
     f5a:	00005097          	auipc	ra,0x5
     f5e:	8a2080e7          	jalr	-1886(ra) # 57fc <open>
  if(fd >= 0){
     f62:	10055163          	bgez	a0,1064 <dirfile+0x154>
  fd = open("dirfile/xx", O_CREATE);
     f66:	20000593          	li	a1,512
     f6a:	00005517          	auipc	a0,0x5
     f6e:	73e50513          	addi	a0,a0,1854 # 66a8 <malloc+0xa2a>
     f72:	00005097          	auipc	ra,0x5
     f76:	88a080e7          	jalr	-1910(ra) # 57fc <open>
  if(fd >= 0){
     f7a:	10055363          	bgez	a0,1080 <dirfile+0x170>
  if(mkdir("dirfile/xx") == 0){
     f7e:	00005517          	auipc	a0,0x5
     f82:	72a50513          	addi	a0,a0,1834 # 66a8 <malloc+0xa2a>
     f86:	00005097          	auipc	ra,0x5
     f8a:	89e080e7          	jalr	-1890(ra) # 5824 <mkdir>
     f8e:	10050763          	beqz	a0,109c <dirfile+0x18c>
  if(unlink("dirfile/xx") == 0){
     f92:	00005517          	auipc	a0,0x5
     f96:	71650513          	addi	a0,a0,1814 # 66a8 <malloc+0xa2a>
     f9a:	00005097          	auipc	ra,0x5
     f9e:	872080e7          	jalr	-1934(ra) # 580c <unlink>
     fa2:	10050b63          	beqz	a0,10b8 <dirfile+0x1a8>
  if(link("README", "dirfile/xx") == 0){
     fa6:	00005597          	auipc	a1,0x5
     faa:	70258593          	addi	a1,a1,1794 # 66a8 <malloc+0xa2a>
     fae:	00005517          	auipc	a0,0x5
     fb2:	78250513          	addi	a0,a0,1922 # 6730 <malloc+0xab2>
     fb6:	00005097          	auipc	ra,0x5
     fba:	866080e7          	jalr	-1946(ra) # 581c <link>
     fbe:	10050b63          	beqz	a0,10d4 <dirfile+0x1c4>
  if(unlink("dirfile") != 0){
     fc2:	00005517          	auipc	a0,0x5
     fc6:	e7e50513          	addi	a0,a0,-386 # 5e40 <malloc+0x1c2>
     fca:	00005097          	auipc	ra,0x5
     fce:	842080e7          	jalr	-1982(ra) # 580c <unlink>
     fd2:	10051f63          	bnez	a0,10f0 <dirfile+0x1e0>
  fd = open(".", O_RDWR);
     fd6:	4589                	li	a1,2
     fd8:	00005517          	auipc	a0,0x5
     fdc:	5e050513          	addi	a0,a0,1504 # 65b8 <malloc+0x93a>
     fe0:	00005097          	auipc	ra,0x5
     fe4:	81c080e7          	jalr	-2020(ra) # 57fc <open>
  if(fd >= 0){
     fe8:	12055263          	bgez	a0,110c <dirfile+0x1fc>
  fd = open(".", 0);
     fec:	4581                	li	a1,0
     fee:	00005517          	auipc	a0,0x5
     ff2:	5ca50513          	addi	a0,a0,1482 # 65b8 <malloc+0x93a>
     ff6:	00005097          	auipc	ra,0x5
     ffa:	806080e7          	jalr	-2042(ra) # 57fc <open>
     ffe:	84aa                	mv	s1,a0
  if(write(fd, "x", 1) > 0){
    1000:	4605                	li	a2,1
    1002:	00005597          	auipc	a1,0x5
    1006:	7a658593          	addi	a1,a1,1958 # 67a8 <malloc+0xb2a>
    100a:	00004097          	auipc	ra,0x4
    100e:	7d2080e7          	jalr	2002(ra) # 57dc <write>
    1012:	10a04b63          	bgtz	a0,1128 <dirfile+0x218>
  close(fd);
    1016:	8526                	mv	a0,s1
    1018:	00004097          	auipc	ra,0x4
    101c:	7cc080e7          	jalr	1996(ra) # 57e4 <close>
}
    1020:	60e2                	ld	ra,24(sp)
    1022:	6442                	ld	s0,16(sp)
    1024:	64a2                	ld	s1,8(sp)
    1026:	6902                	ld	s2,0(sp)
    1028:	6105                	addi	sp,sp,32
    102a:	8082                	ret
    printf("%s: create dirfile failed\n", s);
    102c:	85ca                	mv	a1,s2
    102e:	00005517          	auipc	a0,0x5
    1032:	63a50513          	addi	a0,a0,1594 # 6668 <malloc+0x9ea>
    1036:	00005097          	auipc	ra,0x5
    103a:	b8a080e7          	jalr	-1142(ra) # 5bc0 <printf>
    exit(1);
    103e:	4505                	li	a0,1
    1040:	00004097          	auipc	ra,0x4
    1044:	77c080e7          	jalr	1916(ra) # 57bc <exit>
    printf("%s: chdir dirfile succeeded!\n", s);
    1048:	85ca                	mv	a1,s2
    104a:	00005517          	auipc	a0,0x5
    104e:	63e50513          	addi	a0,a0,1598 # 6688 <malloc+0xa0a>
    1052:	00005097          	auipc	ra,0x5
    1056:	b6e080e7          	jalr	-1170(ra) # 5bc0 <printf>
    exit(1);
    105a:	4505                	li	a0,1
    105c:	00004097          	auipc	ra,0x4
    1060:	760080e7          	jalr	1888(ra) # 57bc <exit>
    printf("%s: create dirfile/xx succeeded!\n", s);
    1064:	85ca                	mv	a1,s2
    1066:	00005517          	auipc	a0,0x5
    106a:	65250513          	addi	a0,a0,1618 # 66b8 <malloc+0xa3a>
    106e:	00005097          	auipc	ra,0x5
    1072:	b52080e7          	jalr	-1198(ra) # 5bc0 <printf>
    exit(1);
    1076:	4505                	li	a0,1
    1078:	00004097          	auipc	ra,0x4
    107c:	744080e7          	jalr	1860(ra) # 57bc <exit>
    printf("%s: create dirfile/xx succeeded!\n", s);
    1080:	85ca                	mv	a1,s2
    1082:	00005517          	auipc	a0,0x5
    1086:	63650513          	addi	a0,a0,1590 # 66b8 <malloc+0xa3a>
    108a:	00005097          	auipc	ra,0x5
    108e:	b36080e7          	jalr	-1226(ra) # 5bc0 <printf>
    exit(1);
    1092:	4505                	li	a0,1
    1094:	00004097          	auipc	ra,0x4
    1098:	728080e7          	jalr	1832(ra) # 57bc <exit>
    printf("%s: mkdir dirfile/xx succeeded!\n", s);
    109c:	85ca                	mv	a1,s2
    109e:	00005517          	auipc	a0,0x5
    10a2:	64250513          	addi	a0,a0,1602 # 66e0 <malloc+0xa62>
    10a6:	00005097          	auipc	ra,0x5
    10aa:	b1a080e7          	jalr	-1254(ra) # 5bc0 <printf>
    exit(1);
    10ae:	4505                	li	a0,1
    10b0:	00004097          	auipc	ra,0x4
    10b4:	70c080e7          	jalr	1804(ra) # 57bc <exit>
    printf("%s: unlink dirfile/xx succeeded!\n", s);
    10b8:	85ca                	mv	a1,s2
    10ba:	00005517          	auipc	a0,0x5
    10be:	64e50513          	addi	a0,a0,1614 # 6708 <malloc+0xa8a>
    10c2:	00005097          	auipc	ra,0x5
    10c6:	afe080e7          	jalr	-1282(ra) # 5bc0 <printf>
    exit(1);
    10ca:	4505                	li	a0,1
    10cc:	00004097          	auipc	ra,0x4
    10d0:	6f0080e7          	jalr	1776(ra) # 57bc <exit>
    printf("%s: link to dirfile/xx succeeded!\n", s);
    10d4:	85ca                	mv	a1,s2
    10d6:	00005517          	auipc	a0,0x5
    10da:	66250513          	addi	a0,a0,1634 # 6738 <malloc+0xaba>
    10de:	00005097          	auipc	ra,0x5
    10e2:	ae2080e7          	jalr	-1310(ra) # 5bc0 <printf>
    exit(1);
    10e6:	4505                	li	a0,1
    10e8:	00004097          	auipc	ra,0x4
    10ec:	6d4080e7          	jalr	1748(ra) # 57bc <exit>
    printf("%s: unlink dirfile failed!\n", s);
    10f0:	85ca                	mv	a1,s2
    10f2:	00005517          	auipc	a0,0x5
    10f6:	66e50513          	addi	a0,a0,1646 # 6760 <malloc+0xae2>
    10fa:	00005097          	auipc	ra,0x5
    10fe:	ac6080e7          	jalr	-1338(ra) # 5bc0 <printf>
    exit(1);
    1102:	4505                	li	a0,1
    1104:	00004097          	auipc	ra,0x4
    1108:	6b8080e7          	jalr	1720(ra) # 57bc <exit>
    printf("%s: open . for writing succeeded!\n", s);
    110c:	85ca                	mv	a1,s2
    110e:	00005517          	auipc	a0,0x5
    1112:	67250513          	addi	a0,a0,1650 # 6780 <malloc+0xb02>
    1116:	00005097          	auipc	ra,0x5
    111a:	aaa080e7          	jalr	-1366(ra) # 5bc0 <printf>
    exit(1);
    111e:	4505                	li	a0,1
    1120:	00004097          	auipc	ra,0x4
    1124:	69c080e7          	jalr	1692(ra) # 57bc <exit>
    printf("%s: write . succeeded!\n", s);
    1128:	85ca                	mv	a1,s2
    112a:	00005517          	auipc	a0,0x5
    112e:	68650513          	addi	a0,a0,1670 # 67b0 <malloc+0xb32>
    1132:	00005097          	auipc	ra,0x5
    1136:	a8e080e7          	jalr	-1394(ra) # 5bc0 <printf>
    exit(1);
    113a:	4505                	li	a0,1
    113c:	00004097          	auipc	ra,0x4
    1140:	680080e7          	jalr	1664(ra) # 57bc <exit>

0000000000001144 <iref>:
{
    1144:	7139                	addi	sp,sp,-64
    1146:	fc06                	sd	ra,56(sp)
    1148:	f822                	sd	s0,48(sp)
    114a:	f426                	sd	s1,40(sp)
    114c:	f04a                	sd	s2,32(sp)
    114e:	ec4e                	sd	s3,24(sp)
    1150:	e852                	sd	s4,16(sp)
    1152:	e456                	sd	s5,8(sp)
    1154:	e05a                	sd	s6,0(sp)
    1156:	0080                	addi	s0,sp,64
    1158:	8b2a                	mv	s6,a0
    115a:	03300913          	li	s2,51
    if(mkdir("irefd") != 0){
    115e:	00005a17          	auipc	s4,0x5
    1162:	66aa0a13          	addi	s4,s4,1642 # 67c8 <malloc+0xb4a>
    mkdir("");
    1166:	00006497          	auipc	s1,0x6
    116a:	45248493          	addi	s1,s1,1106 # 75b8 <malloc+0x193a>
    link("README", "");
    116e:	00005a97          	auipc	s5,0x5
    1172:	5c2a8a93          	addi	s5,s5,1474 # 6730 <malloc+0xab2>
    fd = open("xx", O_CREATE);
    1176:	00005997          	auipc	s3,0x5
    117a:	53a98993          	addi	s3,s3,1338 # 66b0 <malloc+0xa32>
    117e:	a891                	j	11d2 <iref+0x8e>
      printf("%s: mkdir irefd failed\n", s);
    1180:	85da                	mv	a1,s6
    1182:	00005517          	auipc	a0,0x5
    1186:	64e50513          	addi	a0,a0,1614 # 67d0 <malloc+0xb52>
    118a:	00005097          	auipc	ra,0x5
    118e:	a36080e7          	jalr	-1482(ra) # 5bc0 <printf>
      exit(1);
    1192:	4505                	li	a0,1
    1194:	00004097          	auipc	ra,0x4
    1198:	628080e7          	jalr	1576(ra) # 57bc <exit>
      printf("%s: chdir irefd failed\n", s);
    119c:	85da                	mv	a1,s6
    119e:	00005517          	auipc	a0,0x5
    11a2:	64a50513          	addi	a0,a0,1610 # 67e8 <malloc+0xb6a>
    11a6:	00005097          	auipc	ra,0x5
    11aa:	a1a080e7          	jalr	-1510(ra) # 5bc0 <printf>
      exit(1);
    11ae:	4505                	li	a0,1
    11b0:	00004097          	auipc	ra,0x4
    11b4:	60c080e7          	jalr	1548(ra) # 57bc <exit>
      close(fd);
    11b8:	00004097          	auipc	ra,0x4
    11bc:	62c080e7          	jalr	1580(ra) # 57e4 <close>
    11c0:	a889                	j	1212 <iref+0xce>
    unlink("xx");
    11c2:	854e                	mv	a0,s3
    11c4:	00004097          	auipc	ra,0x4
    11c8:	648080e7          	jalr	1608(ra) # 580c <unlink>
  for(i = 0; i < NINODE + 1; i++){
    11cc:	397d                	addiw	s2,s2,-1
    11ce:	06090063          	beqz	s2,122e <iref+0xea>
    if(mkdir("irefd") != 0){
    11d2:	8552                	mv	a0,s4
    11d4:	00004097          	auipc	ra,0x4
    11d8:	650080e7          	jalr	1616(ra) # 5824 <mkdir>
    11dc:	f155                	bnez	a0,1180 <iref+0x3c>
    if(chdir("irefd") != 0){
    11de:	8552                	mv	a0,s4
    11e0:	00004097          	auipc	ra,0x4
    11e4:	64c080e7          	jalr	1612(ra) # 582c <chdir>
    11e8:	f955                	bnez	a0,119c <iref+0x58>
    mkdir("");
    11ea:	8526                	mv	a0,s1
    11ec:	00004097          	auipc	ra,0x4
    11f0:	638080e7          	jalr	1592(ra) # 5824 <mkdir>
    link("README", "");
    11f4:	85a6                	mv	a1,s1
    11f6:	8556                	mv	a0,s5
    11f8:	00004097          	auipc	ra,0x4
    11fc:	624080e7          	jalr	1572(ra) # 581c <link>
    fd = open("", O_CREATE);
    1200:	20000593          	li	a1,512
    1204:	8526                	mv	a0,s1
    1206:	00004097          	auipc	ra,0x4
    120a:	5f6080e7          	jalr	1526(ra) # 57fc <open>
    if(fd >= 0)
    120e:	fa0555e3          	bgez	a0,11b8 <iref+0x74>
    fd = open("xx", O_CREATE);
    1212:	20000593          	li	a1,512
    1216:	854e                	mv	a0,s3
    1218:	00004097          	auipc	ra,0x4
    121c:	5e4080e7          	jalr	1508(ra) # 57fc <open>
    if(fd >= 0)
    1220:	fa0541e3          	bltz	a0,11c2 <iref+0x7e>
      close(fd);
    1224:	00004097          	auipc	ra,0x4
    1228:	5c0080e7          	jalr	1472(ra) # 57e4 <close>
    122c:	bf59                	j	11c2 <iref+0x7e>
    122e:	03300493          	li	s1,51
    chdir("..");
    1232:	00005997          	auipc	s3,0x5
    1236:	3a698993          	addi	s3,s3,934 # 65d8 <malloc+0x95a>
    unlink("irefd");
    123a:	00005917          	auipc	s2,0x5
    123e:	58e90913          	addi	s2,s2,1422 # 67c8 <malloc+0xb4a>
    chdir("..");
    1242:	854e                	mv	a0,s3
    1244:	00004097          	auipc	ra,0x4
    1248:	5e8080e7          	jalr	1512(ra) # 582c <chdir>
    unlink("irefd");
    124c:	854a                	mv	a0,s2
    124e:	00004097          	auipc	ra,0x4
    1252:	5be080e7          	jalr	1470(ra) # 580c <unlink>
  for(i = 0; i < NINODE + 1; i++){
    1256:	34fd                	addiw	s1,s1,-1
    1258:	f4ed                	bnez	s1,1242 <iref+0xfe>
  chdir("/");
    125a:	00005517          	auipc	a0,0x5
    125e:	2ee50513          	addi	a0,a0,750 # 6548 <malloc+0x8ca>
    1262:	00004097          	auipc	ra,0x4
    1266:	5ca080e7          	jalr	1482(ra) # 582c <chdir>
}
    126a:	70e2                	ld	ra,56(sp)
    126c:	7442                	ld	s0,48(sp)
    126e:	74a2                	ld	s1,40(sp)
    1270:	7902                	ld	s2,32(sp)
    1272:	69e2                	ld	s3,24(sp)
    1274:	6a42                	ld	s4,16(sp)
    1276:	6aa2                	ld	s5,8(sp)
    1278:	6b02                	ld	s6,0(sp)
    127a:	6121                	addi	sp,sp,64
    127c:	8082                	ret

000000000000127e <killstatus>:
{
    127e:	7139                	addi	sp,sp,-64
    1280:	fc06                	sd	ra,56(sp)
    1282:	f822                	sd	s0,48(sp)
    1284:	f426                	sd	s1,40(sp)
    1286:	f04a                	sd	s2,32(sp)
    1288:	ec4e                	sd	s3,24(sp)
    128a:	e852                	sd	s4,16(sp)
    128c:	0080                	addi	s0,sp,64
    128e:	8a2a                	mv	s4,a0
    1290:	06400913          	li	s2,100
    if(xst != -1) {
    1294:	59fd                	li	s3,-1
    int pid1 = fork();
    1296:	00004097          	auipc	ra,0x4
    129a:	51e080e7          	jalr	1310(ra) # 57b4 <fork>
    129e:	84aa                	mv	s1,a0
    if(pid1 < 0){
    12a0:	04054063          	bltz	a0,12e0 <killstatus+0x62>
    if(pid1 == 0){
    12a4:	cd21                	beqz	a0,12fc <killstatus+0x7e>
    sleep(1);
    12a6:	4505                	li	a0,1
    12a8:	00004097          	auipc	ra,0x4
    12ac:	5a4080e7          	jalr	1444(ra) # 584c <sleep>
    kill(pid1, SIGKILL);
    12b0:	45a5                	li	a1,9
    12b2:	8526                	mv	a0,s1
    12b4:	00004097          	auipc	ra,0x4
    12b8:	538080e7          	jalr	1336(ra) # 57ec <kill>
    wait(&xst);
    12bc:	fcc40513          	addi	a0,s0,-52
    12c0:	00004097          	auipc	ra,0x4
    12c4:	504080e7          	jalr	1284(ra) # 57c4 <wait>
    if(xst != -1) {
    12c8:	fcc42783          	lw	a5,-52(s0)
    12cc:	03379d63          	bne	a5,s3,1306 <killstatus+0x88>
  for(int i = 0; i < 100; i++){
    12d0:	397d                	addiw	s2,s2,-1
    12d2:	fc0912e3          	bnez	s2,1296 <killstatus+0x18>
  exit(0);
    12d6:	4501                	li	a0,0
    12d8:	00004097          	auipc	ra,0x4
    12dc:	4e4080e7          	jalr	1252(ra) # 57bc <exit>
      printf("%s: fork failed\n", s);
    12e0:	85d2                	mv	a1,s4
    12e2:	00005517          	auipc	a0,0x5
    12e6:	b9e50513          	addi	a0,a0,-1122 # 5e80 <malloc+0x202>
    12ea:	00005097          	auipc	ra,0x5
    12ee:	8d6080e7          	jalr	-1834(ra) # 5bc0 <printf>
      exit(1);
    12f2:	4505                	li	a0,1
    12f4:	00004097          	auipc	ra,0x4
    12f8:	4c8080e7          	jalr	1224(ra) # 57bc <exit>
        getpid();
    12fc:	00004097          	auipc	ra,0x4
    1300:	540080e7          	jalr	1344(ra) # 583c <getpid>
      while(1) {
    1304:	bfe5                	j	12fc <killstatus+0x7e>
       printf("%s: status should be -1\n", s);
    1306:	85d2                	mv	a1,s4
    1308:	00005517          	auipc	a0,0x5
    130c:	4f850513          	addi	a0,a0,1272 # 6800 <malloc+0xb82>
    1310:	00005097          	auipc	ra,0x5
    1314:	8b0080e7          	jalr	-1872(ra) # 5bc0 <printf>
       exit(1);
    1318:	4505                	li	a0,1
    131a:	00004097          	auipc	ra,0x4
    131e:	4a2080e7          	jalr	1186(ra) # 57bc <exit>

0000000000001322 <mem>:
{
    1322:	7139                	addi	sp,sp,-64
    1324:	fc06                	sd	ra,56(sp)
    1326:	f822                	sd	s0,48(sp)
    1328:	f426                	sd	s1,40(sp)
    132a:	f04a                	sd	s2,32(sp)
    132c:	ec4e                	sd	s3,24(sp)
    132e:	0080                	addi	s0,sp,64
    1330:	89aa                	mv	s3,a0
  if((pid = fork()) == 0){
    1332:	00004097          	auipc	ra,0x4
    1336:	482080e7          	jalr	1154(ra) # 57b4 <fork>
    m1 = 0;
    133a:	4481                	li	s1,0
    while((m2 = malloc(10001)) != 0){
    133c:	6909                	lui	s2,0x2
    133e:	71190913          	addi	s2,s2,1809 # 2711 <preempt+0x18f>
  if((pid = fork()) == 0){
    1342:	c115                	beqz	a0,1366 <mem+0x44>
    wait(&xstatus);
    1344:	fcc40513          	addi	a0,s0,-52
    1348:	00004097          	auipc	ra,0x4
    134c:	47c080e7          	jalr	1148(ra) # 57c4 <wait>
    if(xstatus == -1){
    1350:	fcc42503          	lw	a0,-52(s0)
    1354:	57fd                	li	a5,-1
    1356:	06f50363          	beq	a0,a5,13bc <mem+0x9a>
    exit(xstatus);
    135a:	00004097          	auipc	ra,0x4
    135e:	462080e7          	jalr	1122(ra) # 57bc <exit>
      *(char**)m2 = m1;
    1362:	e104                	sd	s1,0(a0)
      m1 = m2;
    1364:	84aa                	mv	s1,a0
    while((m2 = malloc(10001)) != 0){
    1366:	854a                	mv	a0,s2
    1368:	00005097          	auipc	ra,0x5
    136c:	916080e7          	jalr	-1770(ra) # 5c7e <malloc>
    1370:	f96d                	bnez	a0,1362 <mem+0x40>
    while(m1){
    1372:	c881                	beqz	s1,1382 <mem+0x60>
      m2 = *(char**)m1;
    1374:	8526                	mv	a0,s1
    1376:	6084                	ld	s1,0(s1)
      free(m1);
    1378:	00005097          	auipc	ra,0x5
    137c:	87e080e7          	jalr	-1922(ra) # 5bf6 <free>
    while(m1){
    1380:	f8f5                	bnez	s1,1374 <mem+0x52>
    m1 = malloc(1024*20);
    1382:	6515                	lui	a0,0x5
    1384:	00005097          	auipc	ra,0x5
    1388:	8fa080e7          	jalr	-1798(ra) # 5c7e <malloc>
    if(m1 == 0){
    138c:	c911                	beqz	a0,13a0 <mem+0x7e>
    free(m1);
    138e:	00005097          	auipc	ra,0x5
    1392:	868080e7          	jalr	-1944(ra) # 5bf6 <free>
    exit(0);
    1396:	4501                	li	a0,0
    1398:	00004097          	auipc	ra,0x4
    139c:	424080e7          	jalr	1060(ra) # 57bc <exit>
      printf("couldn't allocate mem?!!\n", s);
    13a0:	85ce                	mv	a1,s3
    13a2:	00005517          	auipc	a0,0x5
    13a6:	47e50513          	addi	a0,a0,1150 # 6820 <malloc+0xba2>
    13aa:	00005097          	auipc	ra,0x5
    13ae:	816080e7          	jalr	-2026(ra) # 5bc0 <printf>
      exit(1);
    13b2:	4505                	li	a0,1
    13b4:	00004097          	auipc	ra,0x4
    13b8:	408080e7          	jalr	1032(ra) # 57bc <exit>
      exit(0);
    13bc:	4501                	li	a0,0
    13be:	00004097          	auipc	ra,0x4
    13c2:	3fe080e7          	jalr	1022(ra) # 57bc <exit>

00000000000013c6 <bigfile>:
{
    13c6:	7139                	addi	sp,sp,-64
    13c8:	fc06                	sd	ra,56(sp)
    13ca:	f822                	sd	s0,48(sp)
    13cc:	f426                	sd	s1,40(sp)
    13ce:	f04a                	sd	s2,32(sp)
    13d0:	ec4e                	sd	s3,24(sp)
    13d2:	e852                	sd	s4,16(sp)
    13d4:	e456                	sd	s5,8(sp)
    13d6:	0080                	addi	s0,sp,64
    13d8:	8aaa                	mv	s5,a0
  unlink("bigfile.dat");
    13da:	00005517          	auipc	a0,0x5
    13de:	46650513          	addi	a0,a0,1126 # 6840 <malloc+0xbc2>
    13e2:	00004097          	auipc	ra,0x4
    13e6:	42a080e7          	jalr	1066(ra) # 580c <unlink>
  fd = open("bigfile.dat", O_CREATE | O_RDWR);
    13ea:	20200593          	li	a1,514
    13ee:	00005517          	auipc	a0,0x5
    13f2:	45250513          	addi	a0,a0,1106 # 6840 <malloc+0xbc2>
    13f6:	00004097          	auipc	ra,0x4
    13fa:	406080e7          	jalr	1030(ra) # 57fc <open>
    13fe:	89aa                	mv	s3,a0
  for(i = 0; i < N; i++){
    1400:	4481                	li	s1,0
    memset(buf, i, SZ);
    1402:	0000a917          	auipc	s2,0xa
    1406:	4de90913          	addi	s2,s2,1246 # b8e0 <buf>
  for(i = 0; i < N; i++){
    140a:	4a51                	li	s4,20
  if(fd < 0){
    140c:	0a054063          	bltz	a0,14ac <bigfile+0xe6>
    memset(buf, i, SZ);
    1410:	25800613          	li	a2,600
    1414:	85a6                	mv	a1,s1
    1416:	854a                	mv	a0,s2
    1418:	00004097          	auipc	ra,0x4
    141c:	1a8080e7          	jalr	424(ra) # 55c0 <memset>
    if(write(fd, buf, SZ) != SZ){
    1420:	25800613          	li	a2,600
    1424:	85ca                	mv	a1,s2
    1426:	854e                	mv	a0,s3
    1428:	00004097          	auipc	ra,0x4
    142c:	3b4080e7          	jalr	948(ra) # 57dc <write>
    1430:	25800793          	li	a5,600
    1434:	08f51a63          	bne	a0,a5,14c8 <bigfile+0x102>
  for(i = 0; i < N; i++){
    1438:	2485                	addiw	s1,s1,1
    143a:	fd449be3          	bne	s1,s4,1410 <bigfile+0x4a>
  close(fd);
    143e:	854e                	mv	a0,s3
    1440:	00004097          	auipc	ra,0x4
    1444:	3a4080e7          	jalr	932(ra) # 57e4 <close>
  fd = open("bigfile.dat", 0);
    1448:	4581                	li	a1,0
    144a:	00005517          	auipc	a0,0x5
    144e:	3f650513          	addi	a0,a0,1014 # 6840 <malloc+0xbc2>
    1452:	00004097          	auipc	ra,0x4
    1456:	3aa080e7          	jalr	938(ra) # 57fc <open>
    145a:	8a2a                	mv	s4,a0
  total = 0;
    145c:	4981                	li	s3,0
  for(i = 0; ; i++){
    145e:	4481                	li	s1,0
    cc = read(fd, buf, SZ/2);
    1460:	0000a917          	auipc	s2,0xa
    1464:	48090913          	addi	s2,s2,1152 # b8e0 <buf>
  if(fd < 0){
    1468:	06054e63          	bltz	a0,14e4 <bigfile+0x11e>
    cc = read(fd, buf, SZ/2);
    146c:	12c00613          	li	a2,300
    1470:	85ca                	mv	a1,s2
    1472:	8552                	mv	a0,s4
    1474:	00004097          	auipc	ra,0x4
    1478:	360080e7          	jalr	864(ra) # 57d4 <read>
    if(cc < 0){
    147c:	08054263          	bltz	a0,1500 <bigfile+0x13a>
    if(cc == 0)
    1480:	c971                	beqz	a0,1554 <bigfile+0x18e>
    if(cc != SZ/2){
    1482:	12c00793          	li	a5,300
    1486:	08f51b63          	bne	a0,a5,151c <bigfile+0x156>
    if(buf[0] != i/2 || buf[SZ/2-1] != i/2){
    148a:	01f4d79b          	srliw	a5,s1,0x1f
    148e:	9fa5                	addw	a5,a5,s1
    1490:	4017d79b          	sraiw	a5,a5,0x1
    1494:	00094703          	lbu	a4,0(s2)
    1498:	0af71063          	bne	a4,a5,1538 <bigfile+0x172>
    149c:	12b94703          	lbu	a4,299(s2)
    14a0:	08f71c63          	bne	a4,a5,1538 <bigfile+0x172>
    total += cc;
    14a4:	12c9899b          	addiw	s3,s3,300
  for(i = 0; ; i++){
    14a8:	2485                	addiw	s1,s1,1
    cc = read(fd, buf, SZ/2);
    14aa:	b7c9                	j	146c <bigfile+0xa6>
    printf("%s: cannot create bigfile", s);
    14ac:	85d6                	mv	a1,s5
    14ae:	00005517          	auipc	a0,0x5
    14b2:	3a250513          	addi	a0,a0,930 # 6850 <malloc+0xbd2>
    14b6:	00004097          	auipc	ra,0x4
    14ba:	70a080e7          	jalr	1802(ra) # 5bc0 <printf>
    exit(1);
    14be:	4505                	li	a0,1
    14c0:	00004097          	auipc	ra,0x4
    14c4:	2fc080e7          	jalr	764(ra) # 57bc <exit>
      printf("%s: write bigfile failed\n", s);
    14c8:	85d6                	mv	a1,s5
    14ca:	00005517          	auipc	a0,0x5
    14ce:	3a650513          	addi	a0,a0,934 # 6870 <malloc+0xbf2>
    14d2:	00004097          	auipc	ra,0x4
    14d6:	6ee080e7          	jalr	1774(ra) # 5bc0 <printf>
      exit(1);
    14da:	4505                	li	a0,1
    14dc:	00004097          	auipc	ra,0x4
    14e0:	2e0080e7          	jalr	736(ra) # 57bc <exit>
    printf("%s: cannot open bigfile\n", s);
    14e4:	85d6                	mv	a1,s5
    14e6:	00005517          	auipc	a0,0x5
    14ea:	3aa50513          	addi	a0,a0,938 # 6890 <malloc+0xc12>
    14ee:	00004097          	auipc	ra,0x4
    14f2:	6d2080e7          	jalr	1746(ra) # 5bc0 <printf>
    exit(1);
    14f6:	4505                	li	a0,1
    14f8:	00004097          	auipc	ra,0x4
    14fc:	2c4080e7          	jalr	708(ra) # 57bc <exit>
      printf("%s: read bigfile failed\n", s);
    1500:	85d6                	mv	a1,s5
    1502:	00005517          	auipc	a0,0x5
    1506:	3ae50513          	addi	a0,a0,942 # 68b0 <malloc+0xc32>
    150a:	00004097          	auipc	ra,0x4
    150e:	6b6080e7          	jalr	1718(ra) # 5bc0 <printf>
      exit(1);
    1512:	4505                	li	a0,1
    1514:	00004097          	auipc	ra,0x4
    1518:	2a8080e7          	jalr	680(ra) # 57bc <exit>
      printf("%s: short read bigfile\n", s);
    151c:	85d6                	mv	a1,s5
    151e:	00005517          	auipc	a0,0x5
    1522:	3b250513          	addi	a0,a0,946 # 68d0 <malloc+0xc52>
    1526:	00004097          	auipc	ra,0x4
    152a:	69a080e7          	jalr	1690(ra) # 5bc0 <printf>
      exit(1);
    152e:	4505                	li	a0,1
    1530:	00004097          	auipc	ra,0x4
    1534:	28c080e7          	jalr	652(ra) # 57bc <exit>
      printf("%s: read bigfile wrong data\n", s);
    1538:	85d6                	mv	a1,s5
    153a:	00005517          	auipc	a0,0x5
    153e:	3ae50513          	addi	a0,a0,942 # 68e8 <malloc+0xc6a>
    1542:	00004097          	auipc	ra,0x4
    1546:	67e080e7          	jalr	1662(ra) # 5bc0 <printf>
      exit(1);
    154a:	4505                	li	a0,1
    154c:	00004097          	auipc	ra,0x4
    1550:	270080e7          	jalr	624(ra) # 57bc <exit>
  close(fd);
    1554:	8552                	mv	a0,s4
    1556:	00004097          	auipc	ra,0x4
    155a:	28e080e7          	jalr	654(ra) # 57e4 <close>
  if(total != N*SZ){
    155e:	678d                	lui	a5,0x3
    1560:	ee078793          	addi	a5,a5,-288 # 2ee0 <createdelete+0x6c>
    1564:	02f99363          	bne	s3,a5,158a <bigfile+0x1c4>
  unlink("bigfile.dat");
    1568:	00005517          	auipc	a0,0x5
    156c:	2d850513          	addi	a0,a0,728 # 6840 <malloc+0xbc2>
    1570:	00004097          	auipc	ra,0x4
    1574:	29c080e7          	jalr	668(ra) # 580c <unlink>
}
    1578:	70e2                	ld	ra,56(sp)
    157a:	7442                	ld	s0,48(sp)
    157c:	74a2                	ld	s1,40(sp)
    157e:	7902                	ld	s2,32(sp)
    1580:	69e2                	ld	s3,24(sp)
    1582:	6a42                	ld	s4,16(sp)
    1584:	6aa2                	ld	s5,8(sp)
    1586:	6121                	addi	sp,sp,64
    1588:	8082                	ret
    printf("%s: read bigfile wrong total\n", s);
    158a:	85d6                	mv	a1,s5
    158c:	00005517          	auipc	a0,0x5
    1590:	37c50513          	addi	a0,a0,892 # 6908 <malloc+0xc8a>
    1594:	00004097          	auipc	ra,0x4
    1598:	62c080e7          	jalr	1580(ra) # 5bc0 <printf>
    exit(1);
    159c:	4505                	li	a0,1
    159e:	00004097          	auipc	ra,0x4
    15a2:	21e080e7          	jalr	542(ra) # 57bc <exit>

00000000000015a6 <test_thread>:
void test_thread(){
    15a6:	1141                	addi	sp,sp,-16
    15a8:	e422                	sd	s0,8(sp)
    15aa:	0800                	addi	s0,sp,16
}
    15ac:	6422                	ld	s0,8(sp)
    15ae:	0141                	addi	sp,sp,16
    15b0:	8082                	ret

00000000000015b2 <signal_test>:
void signal_test(char *s){
    15b2:	715d                	addi	sp,sp,-80
    15b4:	e486                	sd	ra,72(sp)
    15b6:	e0a2                	sd	s0,64(sp)
    15b8:	fc26                	sd	s1,56(sp)
    15ba:	0880                	addi	s0,sp,80
    printf("test_handler:%p",test_handler);
    15bc:	fffff597          	auipc	a1,0xfffff
    15c0:	a4458593          	addi	a1,a1,-1468 # 0 <test_handler>
    15c4:	00005517          	auipc	a0,0x5
    15c8:	36450513          	addi	a0,a0,868 # 6928 <malloc+0xcaa>
    15cc:	00004097          	auipc	ra,0x4
    15d0:	5f4080e7          	jalr	1524(ra) # 5bc0 <printf>
    struct sigaction act = {test_handler, (uint)(1 << 29)};
    15d4:	fffff797          	auipc	a5,0xfffff
    15d8:	a2c78793          	addi	a5,a5,-1492 # 0 <test_handler>
    15dc:	fcf43423          	sd	a5,-56(s0)
    15e0:	200007b7          	lui	a5,0x20000
    15e4:	fcf42823          	sw	a5,-48(s0)
    sigprocmask(0);
    15e8:	4501                	li	a0,0
    15ea:	00004097          	auipc	ra,0x4
    15ee:	272080e7          	jalr	626(ra) # 585c <sigprocmask>
    sigaction(testsig, &act, &old);
    15f2:	fb840613          	addi	a2,s0,-72
    15f6:	fc840593          	addi	a1,s0,-56
    15fa:	453d                	li	a0,15
    15fc:	00004097          	auipc	ra,0x4
    1600:	268080e7          	jalr	616(ra) # 5864 <sigaction>
    if((pid = fork()) == 0){
    1604:	00004097          	auipc	ra,0x4
    1608:	1b0080e7          	jalr	432(ra) # 57b4 <fork>
    160c:	fca42e23          	sw	a0,-36(s0)
    1610:	c90d                	beqz	a0,1642 <signal_test+0x90>
    kill(pid, testsig);
    1612:	45bd                	li	a1,15
    1614:	00004097          	auipc	ra,0x4
    1618:	1d8080e7          	jalr	472(ra) # 57ec <kill>
    wait(&pid);
    161c:	fdc40513          	addi	a0,s0,-36
    1620:	00004097          	auipc	ra,0x4
    1624:	1a4080e7          	jalr	420(ra) # 57c4 <wait>
    printf("Finished testing signals\n");
    1628:	00005517          	auipc	a0,0x5
    162c:	31050513          	addi	a0,a0,784 # 6938 <malloc+0xcba>
    1630:	00004097          	auipc	ra,0x4
    1634:	590080e7          	jalr	1424(ra) # 5bc0 <printf>
}
    1638:	60a6                	ld	ra,72(sp)
    163a:	6406                	ld	s0,64(sp)
    163c:	74e2                	ld	s1,56(sp)
    163e:	6161                	addi	sp,sp,80
    1640:	8082                	ret
        while(!wait_sig)
    1642:	00007797          	auipc	a5,0x7
    1646:	a767a783          	lw	a5,-1418(a5) # 80b8 <wait_sig>
    164a:	ef81                	bnez	a5,1662 <signal_test+0xb0>
    164c:	00007497          	auipc	s1,0x7
    1650:	a6c48493          	addi	s1,s1,-1428 # 80b8 <wait_sig>
            sleep(1);
    1654:	4505                	li	a0,1
    1656:	00004097          	auipc	ra,0x4
    165a:	1f6080e7          	jalr	502(ra) # 584c <sleep>
        while(!wait_sig)
    165e:	409c                	lw	a5,0(s1)
    1660:	dbf5                	beqz	a5,1654 <signal_test+0xa2>
        exit(0);
    1662:	4501                	li	a0,0
    1664:	00004097          	auipc	ra,0x4
    1668:	158080e7          	jalr	344(ra) # 57bc <exit>

000000000000166c <thread_test>:
void thread_test(char *s){
    166c:	1141                	addi	sp,sp,-16
    166e:	e422                	sd	s0,8(sp)
    1670:	0800                	addi	s0,sp,16
}
    1672:	6422                	ld	s0,8(sp)
    1674:	0141                	addi	sp,sp,16
    1676:	8082                	ret

0000000000001678 <bsem_test>:
void bsem_test(char *s){
    1678:	1141                	addi	sp,sp,-16
    167a:	e422                	sd	s0,8(sp)
    167c:	0800                	addi	s0,sp,16
}
    167e:	6422                	ld	s0,8(sp)
    1680:	0141                	addi	sp,sp,16
    1682:	8082                	ret

0000000000001684 <Csem_test>:
void Csem_test(char *s){
    1684:	1141                	addi	sp,sp,-16
    1686:	e422                	sd	s0,8(sp)
    1688:	0800                	addi	s0,sp,16
}
    168a:	6422                	ld	s0,8(sp)
    168c:	0141                	addi	sp,sp,16
    168e:	8082                	ret

0000000000001690 <copyin>:
{
    1690:	715d                	addi	sp,sp,-80
    1692:	e486                	sd	ra,72(sp)
    1694:	e0a2                	sd	s0,64(sp)
    1696:	fc26                	sd	s1,56(sp)
    1698:	f84a                	sd	s2,48(sp)
    169a:	f44e                	sd	s3,40(sp)
    169c:	f052                	sd	s4,32(sp)
    169e:	0880                	addi	s0,sp,80
  uint64 addrs[] = { 0x80000000LL, 0xffffffffffffffff };
    16a0:	4785                	li	a5,1
    16a2:	07fe                	slli	a5,a5,0x1f
    16a4:	fcf43023          	sd	a5,-64(s0)
    16a8:	57fd                	li	a5,-1
    16aa:	fcf43423          	sd	a5,-56(s0)
  for(int ai = 0; ai < 2; ai++){
    16ae:	fc040913          	addi	s2,s0,-64
    int fd = open("copyin1", O_CREATE|O_WRONLY);
    16b2:	00005a17          	auipc	s4,0x5
    16b6:	2a6a0a13          	addi	s4,s4,678 # 6958 <malloc+0xcda>
    uint64 addr = addrs[ai];
    16ba:	00093983          	ld	s3,0(s2)
    int fd = open("copyin1", O_CREATE|O_WRONLY);
    16be:	20100593          	li	a1,513
    16c2:	8552                	mv	a0,s4
    16c4:	00004097          	auipc	ra,0x4
    16c8:	138080e7          	jalr	312(ra) # 57fc <open>
    16cc:	84aa                	mv	s1,a0
    if(fd < 0){
    16ce:	08054863          	bltz	a0,175e <copyin+0xce>
    int n = write(fd, (void*)addr, 8192);
    16d2:	6609                	lui	a2,0x2
    16d4:	85ce                	mv	a1,s3
    16d6:	00004097          	auipc	ra,0x4
    16da:	106080e7          	jalr	262(ra) # 57dc <write>
    if(n >= 0){
    16de:	08055d63          	bgez	a0,1778 <copyin+0xe8>
    close(fd);
    16e2:	8526                	mv	a0,s1
    16e4:	00004097          	auipc	ra,0x4
    16e8:	100080e7          	jalr	256(ra) # 57e4 <close>
    unlink("copyin1");
    16ec:	8552                	mv	a0,s4
    16ee:	00004097          	auipc	ra,0x4
    16f2:	11e080e7          	jalr	286(ra) # 580c <unlink>
    n = write(1, (char*)addr, 8192);
    16f6:	6609                	lui	a2,0x2
    16f8:	85ce                	mv	a1,s3
    16fa:	4505                	li	a0,1
    16fc:	00004097          	auipc	ra,0x4
    1700:	0e0080e7          	jalr	224(ra) # 57dc <write>
    if(n > 0){
    1704:	08a04963          	bgtz	a0,1796 <copyin+0x106>
    if(pipe(fds) < 0){
    1708:	fb840513          	addi	a0,s0,-72
    170c:	00004097          	auipc	ra,0x4
    1710:	0c0080e7          	jalr	192(ra) # 57cc <pipe>
    1714:	0a054063          	bltz	a0,17b4 <copyin+0x124>
    n = write(fds[1], (char*)addr, 8192);
    1718:	6609                	lui	a2,0x2
    171a:	85ce                	mv	a1,s3
    171c:	fbc42503          	lw	a0,-68(s0)
    1720:	00004097          	auipc	ra,0x4
    1724:	0bc080e7          	jalr	188(ra) # 57dc <write>
    if(n > 0){
    1728:	0aa04363          	bgtz	a0,17ce <copyin+0x13e>
    close(fds[0]);
    172c:	fb842503          	lw	a0,-72(s0)
    1730:	00004097          	auipc	ra,0x4
    1734:	0b4080e7          	jalr	180(ra) # 57e4 <close>
    close(fds[1]);
    1738:	fbc42503          	lw	a0,-68(s0)
    173c:	00004097          	auipc	ra,0x4
    1740:	0a8080e7          	jalr	168(ra) # 57e4 <close>
  for(int ai = 0; ai < 2; ai++){
    1744:	0921                	addi	s2,s2,8
    1746:	fd040793          	addi	a5,s0,-48
    174a:	f6f918e3          	bne	s2,a5,16ba <copyin+0x2a>
}
    174e:	60a6                	ld	ra,72(sp)
    1750:	6406                	ld	s0,64(sp)
    1752:	74e2                	ld	s1,56(sp)
    1754:	7942                	ld	s2,48(sp)
    1756:	79a2                	ld	s3,40(sp)
    1758:	7a02                	ld	s4,32(sp)
    175a:	6161                	addi	sp,sp,80
    175c:	8082                	ret
      printf("open(copyin1) failed\n");
    175e:	00005517          	auipc	a0,0x5
    1762:	20250513          	addi	a0,a0,514 # 6960 <malloc+0xce2>
    1766:	00004097          	auipc	ra,0x4
    176a:	45a080e7          	jalr	1114(ra) # 5bc0 <printf>
      exit(1);
    176e:	4505                	li	a0,1
    1770:	00004097          	auipc	ra,0x4
    1774:	04c080e7          	jalr	76(ra) # 57bc <exit>
      printf("write(fd, %p, 8192) returned %d, not -1\n", addr, n);
    1778:	862a                	mv	a2,a0
    177a:	85ce                	mv	a1,s3
    177c:	00005517          	auipc	a0,0x5
    1780:	1fc50513          	addi	a0,a0,508 # 6978 <malloc+0xcfa>
    1784:	00004097          	auipc	ra,0x4
    1788:	43c080e7          	jalr	1084(ra) # 5bc0 <printf>
      exit(1);
    178c:	4505                	li	a0,1
    178e:	00004097          	auipc	ra,0x4
    1792:	02e080e7          	jalr	46(ra) # 57bc <exit>
      printf("write(1, %p, 8192) returned %d, not -1 or 0\n", addr, n);
    1796:	862a                	mv	a2,a0
    1798:	85ce                	mv	a1,s3
    179a:	00005517          	auipc	a0,0x5
    179e:	20e50513          	addi	a0,a0,526 # 69a8 <malloc+0xd2a>
    17a2:	00004097          	auipc	ra,0x4
    17a6:	41e080e7          	jalr	1054(ra) # 5bc0 <printf>
      exit(1);
    17aa:	4505                	li	a0,1
    17ac:	00004097          	auipc	ra,0x4
    17b0:	010080e7          	jalr	16(ra) # 57bc <exit>
      printf("pipe() failed\n");
    17b4:	00005517          	auipc	a0,0x5
    17b8:	22450513          	addi	a0,a0,548 # 69d8 <malloc+0xd5a>
    17bc:	00004097          	auipc	ra,0x4
    17c0:	404080e7          	jalr	1028(ra) # 5bc0 <printf>
      exit(1);
    17c4:	4505                	li	a0,1
    17c6:	00004097          	auipc	ra,0x4
    17ca:	ff6080e7          	jalr	-10(ra) # 57bc <exit>
      printf("write(pipe, %p, 8192) returned %d, not -1 or 0\n", addr, n);
    17ce:	862a                	mv	a2,a0
    17d0:	85ce                	mv	a1,s3
    17d2:	00005517          	auipc	a0,0x5
    17d6:	21650513          	addi	a0,a0,534 # 69e8 <malloc+0xd6a>
    17da:	00004097          	auipc	ra,0x4
    17de:	3e6080e7          	jalr	998(ra) # 5bc0 <printf>
      exit(1);
    17e2:	4505                	li	a0,1
    17e4:	00004097          	auipc	ra,0x4
    17e8:	fd8080e7          	jalr	-40(ra) # 57bc <exit>

00000000000017ec <copyout>:
{
    17ec:	711d                	addi	sp,sp,-96
    17ee:	ec86                	sd	ra,88(sp)
    17f0:	e8a2                	sd	s0,80(sp)
    17f2:	e4a6                	sd	s1,72(sp)
    17f4:	e0ca                	sd	s2,64(sp)
    17f6:	fc4e                	sd	s3,56(sp)
    17f8:	f852                	sd	s4,48(sp)
    17fa:	f456                	sd	s5,40(sp)
    17fc:	1080                	addi	s0,sp,96
  uint64 addrs[] = { 0x80000000LL, 0xffffffffffffffff };
    17fe:	4785                	li	a5,1
    1800:	07fe                	slli	a5,a5,0x1f
    1802:	faf43823          	sd	a5,-80(s0)
    1806:	57fd                	li	a5,-1
    1808:	faf43c23          	sd	a5,-72(s0)
  for(int ai = 0; ai < 2; ai++){
    180c:	fb040913          	addi	s2,s0,-80
    int fd = open("README", 0);
    1810:	00005a17          	auipc	s4,0x5
    1814:	f20a0a13          	addi	s4,s4,-224 # 6730 <malloc+0xab2>
    n = write(fds[1], "x", 1);
    1818:	00005a97          	auipc	s5,0x5
    181c:	f90a8a93          	addi	s5,s5,-112 # 67a8 <malloc+0xb2a>
    uint64 addr = addrs[ai];
    1820:	00093983          	ld	s3,0(s2)
    int fd = open("README", 0);
    1824:	4581                	li	a1,0
    1826:	8552                	mv	a0,s4
    1828:	00004097          	auipc	ra,0x4
    182c:	fd4080e7          	jalr	-44(ra) # 57fc <open>
    1830:	84aa                	mv	s1,a0
    if(fd < 0){
    1832:	08054663          	bltz	a0,18be <copyout+0xd2>
    int n = read(fd, (void*)addr, 8192);
    1836:	6609                	lui	a2,0x2
    1838:	85ce                	mv	a1,s3
    183a:	00004097          	auipc	ra,0x4
    183e:	f9a080e7          	jalr	-102(ra) # 57d4 <read>
    if(n > 0){
    1842:	08a04b63          	bgtz	a0,18d8 <copyout+0xec>
    close(fd);
    1846:	8526                	mv	a0,s1
    1848:	00004097          	auipc	ra,0x4
    184c:	f9c080e7          	jalr	-100(ra) # 57e4 <close>
    if(pipe(fds) < 0){
    1850:	fa840513          	addi	a0,s0,-88
    1854:	00004097          	auipc	ra,0x4
    1858:	f78080e7          	jalr	-136(ra) # 57cc <pipe>
    185c:	08054d63          	bltz	a0,18f6 <copyout+0x10a>
    n = write(fds[1], "x", 1);
    1860:	4605                	li	a2,1
    1862:	85d6                	mv	a1,s5
    1864:	fac42503          	lw	a0,-84(s0)
    1868:	00004097          	auipc	ra,0x4
    186c:	f74080e7          	jalr	-140(ra) # 57dc <write>
    if(n != 1){
    1870:	4785                	li	a5,1
    1872:	08f51f63          	bne	a0,a5,1910 <copyout+0x124>
    n = read(fds[0], (void*)addr, 8192);
    1876:	6609                	lui	a2,0x2
    1878:	85ce                	mv	a1,s3
    187a:	fa842503          	lw	a0,-88(s0)
    187e:	00004097          	auipc	ra,0x4
    1882:	f56080e7          	jalr	-170(ra) # 57d4 <read>
    if(n > 0){
    1886:	0aa04263          	bgtz	a0,192a <copyout+0x13e>
    close(fds[0]);
    188a:	fa842503          	lw	a0,-88(s0)
    188e:	00004097          	auipc	ra,0x4
    1892:	f56080e7          	jalr	-170(ra) # 57e4 <close>
    close(fds[1]);
    1896:	fac42503          	lw	a0,-84(s0)
    189a:	00004097          	auipc	ra,0x4
    189e:	f4a080e7          	jalr	-182(ra) # 57e4 <close>
  for(int ai = 0; ai < 2; ai++){
    18a2:	0921                	addi	s2,s2,8
    18a4:	fc040793          	addi	a5,s0,-64
    18a8:	f6f91ce3          	bne	s2,a5,1820 <copyout+0x34>
}
    18ac:	60e6                	ld	ra,88(sp)
    18ae:	6446                	ld	s0,80(sp)
    18b0:	64a6                	ld	s1,72(sp)
    18b2:	6906                	ld	s2,64(sp)
    18b4:	79e2                	ld	s3,56(sp)
    18b6:	7a42                	ld	s4,48(sp)
    18b8:	7aa2                	ld	s5,40(sp)
    18ba:	6125                	addi	sp,sp,96
    18bc:	8082                	ret
      printf("open(README) failed\n");
    18be:	00005517          	auipc	a0,0x5
    18c2:	15a50513          	addi	a0,a0,346 # 6a18 <malloc+0xd9a>
    18c6:	00004097          	auipc	ra,0x4
    18ca:	2fa080e7          	jalr	762(ra) # 5bc0 <printf>
      exit(1);
    18ce:	4505                	li	a0,1
    18d0:	00004097          	auipc	ra,0x4
    18d4:	eec080e7          	jalr	-276(ra) # 57bc <exit>
      printf("read(fd, %p, 8192) returned %d, not -1 or 0\n", addr, n);
    18d8:	862a                	mv	a2,a0
    18da:	85ce                	mv	a1,s3
    18dc:	00005517          	auipc	a0,0x5
    18e0:	15450513          	addi	a0,a0,340 # 6a30 <malloc+0xdb2>
    18e4:	00004097          	auipc	ra,0x4
    18e8:	2dc080e7          	jalr	732(ra) # 5bc0 <printf>
      exit(1);
    18ec:	4505                	li	a0,1
    18ee:	00004097          	auipc	ra,0x4
    18f2:	ece080e7          	jalr	-306(ra) # 57bc <exit>
      printf("pipe() failed\n");
    18f6:	00005517          	auipc	a0,0x5
    18fa:	0e250513          	addi	a0,a0,226 # 69d8 <malloc+0xd5a>
    18fe:	00004097          	auipc	ra,0x4
    1902:	2c2080e7          	jalr	706(ra) # 5bc0 <printf>
      exit(1);
    1906:	4505                	li	a0,1
    1908:	00004097          	auipc	ra,0x4
    190c:	eb4080e7          	jalr	-332(ra) # 57bc <exit>
      printf("pipe write failed\n");
    1910:	00005517          	auipc	a0,0x5
    1914:	15050513          	addi	a0,a0,336 # 6a60 <malloc+0xde2>
    1918:	00004097          	auipc	ra,0x4
    191c:	2a8080e7          	jalr	680(ra) # 5bc0 <printf>
      exit(1);
    1920:	4505                	li	a0,1
    1922:	00004097          	auipc	ra,0x4
    1926:	e9a080e7          	jalr	-358(ra) # 57bc <exit>
      printf("read(pipe, %p, 8192) returned %d, not -1 or 0\n", addr, n);
    192a:	862a                	mv	a2,a0
    192c:	85ce                	mv	a1,s3
    192e:	00005517          	auipc	a0,0x5
    1932:	14a50513          	addi	a0,a0,330 # 6a78 <malloc+0xdfa>
    1936:	00004097          	auipc	ra,0x4
    193a:	28a080e7          	jalr	650(ra) # 5bc0 <printf>
      exit(1);
    193e:	4505                	li	a0,1
    1940:	00004097          	auipc	ra,0x4
    1944:	e7c080e7          	jalr	-388(ra) # 57bc <exit>

0000000000001948 <copyinstr1>:
{
    1948:	1141                	addi	sp,sp,-16
    194a:	e406                	sd	ra,8(sp)
    194c:	e022                	sd	s0,0(sp)
    194e:	0800                	addi	s0,sp,16
    int fd = open((char *)addr, O_CREATE|O_WRONLY);
    1950:	20100593          	li	a1,513
    1954:	4505                	li	a0,1
    1956:	057e                	slli	a0,a0,0x1f
    1958:	00004097          	auipc	ra,0x4
    195c:	ea4080e7          	jalr	-348(ra) # 57fc <open>
    if(fd >= 0){
    1960:	02055063          	bgez	a0,1980 <copyinstr1+0x38>
    int fd = open((char *)addr, O_CREATE|O_WRONLY);
    1964:	20100593          	li	a1,513
    1968:	557d                	li	a0,-1
    196a:	00004097          	auipc	ra,0x4
    196e:	e92080e7          	jalr	-366(ra) # 57fc <open>
    uint64 addr = addrs[ai];
    1972:	55fd                	li	a1,-1
    if(fd >= 0){
    1974:	00055863          	bgez	a0,1984 <copyinstr1+0x3c>
}
    1978:	60a2                	ld	ra,8(sp)
    197a:	6402                	ld	s0,0(sp)
    197c:	0141                	addi	sp,sp,16
    197e:	8082                	ret
    uint64 addr = addrs[ai];
    1980:	4585                	li	a1,1
    1982:	05fe                	slli	a1,a1,0x1f
      printf("open(%p) returned %d, not -1\n", addr, fd);
    1984:	862a                	mv	a2,a0
    1986:	00005517          	auipc	a0,0x5
    198a:	12250513          	addi	a0,a0,290 # 6aa8 <malloc+0xe2a>
    198e:	00004097          	auipc	ra,0x4
    1992:	232080e7          	jalr	562(ra) # 5bc0 <printf>
      exit(1);
    1996:	4505                	li	a0,1
    1998:	00004097          	auipc	ra,0x4
    199c:	e24080e7          	jalr	-476(ra) # 57bc <exit>

00000000000019a0 <copyinstr2>:
{
    19a0:	7155                	addi	sp,sp,-208
    19a2:	e586                	sd	ra,200(sp)
    19a4:	e1a2                	sd	s0,192(sp)
    19a6:	0980                	addi	s0,sp,208
  for(int i = 0; i < MAXPATH; i++)
    19a8:	f6840793          	addi	a5,s0,-152
    19ac:	fe840693          	addi	a3,s0,-24
    b[i] = 'x';
    19b0:	07800713          	li	a4,120
    19b4:	00e78023          	sb	a4,0(a5)
  for(int i = 0; i < MAXPATH; i++)
    19b8:	0785                	addi	a5,a5,1
    19ba:	fed79de3          	bne	a5,a3,19b4 <copyinstr2+0x14>
  b[MAXPATH] = '\0';
    19be:	fe040423          	sb	zero,-24(s0)
  int ret = unlink(b);
    19c2:	f6840513          	addi	a0,s0,-152
    19c6:	00004097          	auipc	ra,0x4
    19ca:	e46080e7          	jalr	-442(ra) # 580c <unlink>
  if(ret != -1){
    19ce:	57fd                	li	a5,-1
    19d0:	0ef51063          	bne	a0,a5,1ab0 <copyinstr2+0x110>
  int fd = open(b, O_CREATE | O_WRONLY);
    19d4:	20100593          	li	a1,513
    19d8:	f6840513          	addi	a0,s0,-152
    19dc:	00004097          	auipc	ra,0x4
    19e0:	e20080e7          	jalr	-480(ra) # 57fc <open>
  if(fd != -1){
    19e4:	57fd                	li	a5,-1
    19e6:	0ef51563          	bne	a0,a5,1ad0 <copyinstr2+0x130>
  ret = link(b, b);
    19ea:	f6840593          	addi	a1,s0,-152
    19ee:	852e                	mv	a0,a1
    19f0:	00004097          	auipc	ra,0x4
    19f4:	e2c080e7          	jalr	-468(ra) # 581c <link>
  if(ret != -1){
    19f8:	57fd                	li	a5,-1
    19fa:	0ef51b63          	bne	a0,a5,1af0 <copyinstr2+0x150>
  char *args[] = { "xx", 0 };
    19fe:	00005797          	auipc	a5,0x5
    1a02:	cb278793          	addi	a5,a5,-846 # 66b0 <malloc+0xa32>
    1a06:	f4f43c23          	sd	a5,-168(s0)
    1a0a:	f6043023          	sd	zero,-160(s0)
  ret = exec(b, args);
    1a0e:	f5840593          	addi	a1,s0,-168
    1a12:	f6840513          	addi	a0,s0,-152
    1a16:	00004097          	auipc	ra,0x4
    1a1a:	dde080e7          	jalr	-546(ra) # 57f4 <exec>
  if(ret != -1){
    1a1e:	57fd                	li	a5,-1
    1a20:	0ef51963          	bne	a0,a5,1b12 <copyinstr2+0x172>
  int pid = fork();
    1a24:	00004097          	auipc	ra,0x4
    1a28:	d90080e7          	jalr	-624(ra) # 57b4 <fork>
  if(pid < 0){
    1a2c:	10054363          	bltz	a0,1b32 <copyinstr2+0x192>
  if(pid == 0){
    1a30:	12051463          	bnez	a0,1b58 <copyinstr2+0x1b8>
    1a34:	00006797          	auipc	a5,0x6
    1a38:	79478793          	addi	a5,a5,1940 # 81c8 <big.0>
    1a3c:	00007697          	auipc	a3,0x7
    1a40:	78c68693          	addi	a3,a3,1932 # 91c8 <__global_pointer$+0x920>
      big[i] = 'x';
    1a44:	07800713          	li	a4,120
    1a48:	00e78023          	sb	a4,0(a5)
    for(int i = 0; i < PGSIZE; i++)
    1a4c:	0785                	addi	a5,a5,1
    1a4e:	fed79de3          	bne	a5,a3,1a48 <copyinstr2+0xa8>
    big[PGSIZE] = '\0';
    1a52:	00007797          	auipc	a5,0x7
    1a56:	76078b23          	sb	zero,1910(a5) # 91c8 <__global_pointer$+0x920>
    char *args2[] = { big, big, big, 0 };
    1a5a:	00006797          	auipc	a5,0x6
    1a5e:	4de78793          	addi	a5,a5,1246 # 7f38 <malloc+0x22ba>
    1a62:	6390                	ld	a2,0(a5)
    1a64:	6794                	ld	a3,8(a5)
    1a66:	6b98                	ld	a4,16(a5)
    1a68:	6f9c                	ld	a5,24(a5)
    1a6a:	f2c43823          	sd	a2,-208(s0)
    1a6e:	f2d43c23          	sd	a3,-200(s0)
    1a72:	f4e43023          	sd	a4,-192(s0)
    1a76:	f4f43423          	sd	a5,-184(s0)
    ret = exec("echo", args2);
    1a7a:	f3040593          	addi	a1,s0,-208
    1a7e:	00004517          	auipc	a0,0x4
    1a82:	4c250513          	addi	a0,a0,1218 # 5f40 <malloc+0x2c2>
    1a86:	00004097          	auipc	ra,0x4
    1a8a:	d6e080e7          	jalr	-658(ra) # 57f4 <exec>
    if(ret != -1){
    1a8e:	57fd                	li	a5,-1
    1a90:	0af50e63          	beq	a0,a5,1b4c <copyinstr2+0x1ac>
      printf("exec(echo, BIG) returned %d, not -1\n", fd);
    1a94:	55fd                	li	a1,-1
    1a96:	00005517          	auipc	a0,0x5
    1a9a:	0ba50513          	addi	a0,a0,186 # 6b50 <malloc+0xed2>
    1a9e:	00004097          	auipc	ra,0x4
    1aa2:	122080e7          	jalr	290(ra) # 5bc0 <printf>
      exit(1);
    1aa6:	4505                	li	a0,1
    1aa8:	00004097          	auipc	ra,0x4
    1aac:	d14080e7          	jalr	-748(ra) # 57bc <exit>
    printf("unlink(%s) returned %d, not -1\n", b, ret);
    1ab0:	862a                	mv	a2,a0
    1ab2:	f6840593          	addi	a1,s0,-152
    1ab6:	00005517          	auipc	a0,0x5
    1aba:	01250513          	addi	a0,a0,18 # 6ac8 <malloc+0xe4a>
    1abe:	00004097          	auipc	ra,0x4
    1ac2:	102080e7          	jalr	258(ra) # 5bc0 <printf>
    exit(1);
    1ac6:	4505                	li	a0,1
    1ac8:	00004097          	auipc	ra,0x4
    1acc:	cf4080e7          	jalr	-780(ra) # 57bc <exit>
    printf("open(%s) returned %d, not -1\n", b, fd);
    1ad0:	862a                	mv	a2,a0
    1ad2:	f6840593          	addi	a1,s0,-152
    1ad6:	00005517          	auipc	a0,0x5
    1ada:	01250513          	addi	a0,a0,18 # 6ae8 <malloc+0xe6a>
    1ade:	00004097          	auipc	ra,0x4
    1ae2:	0e2080e7          	jalr	226(ra) # 5bc0 <printf>
    exit(1);
    1ae6:	4505                	li	a0,1
    1ae8:	00004097          	auipc	ra,0x4
    1aec:	cd4080e7          	jalr	-812(ra) # 57bc <exit>
    printf("link(%s, %s) returned %d, not -1\n", b, b, ret);
    1af0:	86aa                	mv	a3,a0
    1af2:	f6840613          	addi	a2,s0,-152
    1af6:	85b2                	mv	a1,a2
    1af8:	00005517          	auipc	a0,0x5
    1afc:	01050513          	addi	a0,a0,16 # 6b08 <malloc+0xe8a>
    1b00:	00004097          	auipc	ra,0x4
    1b04:	0c0080e7          	jalr	192(ra) # 5bc0 <printf>
    exit(1);
    1b08:	4505                	li	a0,1
    1b0a:	00004097          	auipc	ra,0x4
    1b0e:	cb2080e7          	jalr	-846(ra) # 57bc <exit>
    printf("exec(%s) returned %d, not -1\n", b, fd);
    1b12:	567d                	li	a2,-1
    1b14:	f6840593          	addi	a1,s0,-152
    1b18:	00005517          	auipc	a0,0x5
    1b1c:	01850513          	addi	a0,a0,24 # 6b30 <malloc+0xeb2>
    1b20:	00004097          	auipc	ra,0x4
    1b24:	0a0080e7          	jalr	160(ra) # 5bc0 <printf>
    exit(1);
    1b28:	4505                	li	a0,1
    1b2a:	00004097          	auipc	ra,0x4
    1b2e:	c92080e7          	jalr	-878(ra) # 57bc <exit>
    printf("fork failed\n");
    1b32:	00006517          	auipc	a0,0x6
    1b36:	17650513          	addi	a0,a0,374 # 7ca8 <malloc+0x202a>
    1b3a:	00004097          	auipc	ra,0x4
    1b3e:	086080e7          	jalr	134(ra) # 5bc0 <printf>
    exit(1);
    1b42:	4505                	li	a0,1
    1b44:	00004097          	auipc	ra,0x4
    1b48:	c78080e7          	jalr	-904(ra) # 57bc <exit>
    exit(747); // OK
    1b4c:	2eb00513          	li	a0,747
    1b50:	00004097          	auipc	ra,0x4
    1b54:	c6c080e7          	jalr	-916(ra) # 57bc <exit>
  int st = 0;
    1b58:	f4042a23          	sw	zero,-172(s0)
  wait(&st);
    1b5c:	f5440513          	addi	a0,s0,-172
    1b60:	00004097          	auipc	ra,0x4
    1b64:	c64080e7          	jalr	-924(ra) # 57c4 <wait>
  if(st != 747){
    1b68:	f5442703          	lw	a4,-172(s0)
    1b6c:	2eb00793          	li	a5,747
    1b70:	00f71663          	bne	a4,a5,1b7c <copyinstr2+0x1dc>
}
    1b74:	60ae                	ld	ra,200(sp)
    1b76:	640e                	ld	s0,192(sp)
    1b78:	6169                	addi	sp,sp,208
    1b7a:	8082                	ret
    printf("exec(echo, BIG) succeeded, should have failed\n");
    1b7c:	00005517          	auipc	a0,0x5
    1b80:	ffc50513          	addi	a0,a0,-4 # 6b78 <malloc+0xefa>
    1b84:	00004097          	auipc	ra,0x4
    1b88:	03c080e7          	jalr	60(ra) # 5bc0 <printf>
    exit(1);
    1b8c:	4505                	li	a0,1
    1b8e:	00004097          	auipc	ra,0x4
    1b92:	c2e080e7          	jalr	-978(ra) # 57bc <exit>

0000000000001b96 <copyinstr3>:
{
    1b96:	7179                	addi	sp,sp,-48
    1b98:	f406                	sd	ra,40(sp)
    1b9a:	f022                	sd	s0,32(sp)
    1b9c:	ec26                	sd	s1,24(sp)
    1b9e:	1800                	addi	s0,sp,48
  sbrk(8192);
    1ba0:	6509                	lui	a0,0x2
    1ba2:	00004097          	auipc	ra,0x4
    1ba6:	ca2080e7          	jalr	-862(ra) # 5844 <sbrk>
  uint64 top = (uint64) sbrk(0);
    1baa:	4501                	li	a0,0
    1bac:	00004097          	auipc	ra,0x4
    1bb0:	c98080e7          	jalr	-872(ra) # 5844 <sbrk>
  if((top % PGSIZE) != 0){
    1bb4:	03451793          	slli	a5,a0,0x34
    1bb8:	e3c9                	bnez	a5,1c3a <copyinstr3+0xa4>
  top = (uint64) sbrk(0);
    1bba:	4501                	li	a0,0
    1bbc:	00004097          	auipc	ra,0x4
    1bc0:	c88080e7          	jalr	-888(ra) # 5844 <sbrk>
  if(top % PGSIZE){
    1bc4:	03451793          	slli	a5,a0,0x34
    1bc8:	e3d9                	bnez	a5,1c4e <copyinstr3+0xb8>
  char *b = (char *) (top - 1);
    1bca:	fff50493          	addi	s1,a0,-1 # 1fff <truncate1+0x1c3>
  *b = 'x';
    1bce:	07800793          	li	a5,120
    1bd2:	fef50fa3          	sb	a5,-1(a0)
  int ret = unlink(b);
    1bd6:	8526                	mv	a0,s1
    1bd8:	00004097          	auipc	ra,0x4
    1bdc:	c34080e7          	jalr	-972(ra) # 580c <unlink>
  if(ret != -1){
    1be0:	57fd                	li	a5,-1
    1be2:	08f51363          	bne	a0,a5,1c68 <copyinstr3+0xd2>
  int fd = open(b, O_CREATE | O_WRONLY);
    1be6:	20100593          	li	a1,513
    1bea:	8526                	mv	a0,s1
    1bec:	00004097          	auipc	ra,0x4
    1bf0:	c10080e7          	jalr	-1008(ra) # 57fc <open>
  if(fd != -1){
    1bf4:	57fd                	li	a5,-1
    1bf6:	08f51863          	bne	a0,a5,1c86 <copyinstr3+0xf0>
  ret = link(b, b);
    1bfa:	85a6                	mv	a1,s1
    1bfc:	8526                	mv	a0,s1
    1bfe:	00004097          	auipc	ra,0x4
    1c02:	c1e080e7          	jalr	-994(ra) # 581c <link>
  if(ret != -1){
    1c06:	57fd                	li	a5,-1
    1c08:	08f51e63          	bne	a0,a5,1ca4 <copyinstr3+0x10e>
  char *args[] = { "xx", 0 };
    1c0c:	00005797          	auipc	a5,0x5
    1c10:	aa478793          	addi	a5,a5,-1372 # 66b0 <malloc+0xa32>
    1c14:	fcf43823          	sd	a5,-48(s0)
    1c18:	fc043c23          	sd	zero,-40(s0)
  ret = exec(b, args);
    1c1c:	fd040593          	addi	a1,s0,-48
    1c20:	8526                	mv	a0,s1
    1c22:	00004097          	auipc	ra,0x4
    1c26:	bd2080e7          	jalr	-1070(ra) # 57f4 <exec>
  if(ret != -1){
    1c2a:	57fd                	li	a5,-1
    1c2c:	08f51c63          	bne	a0,a5,1cc4 <copyinstr3+0x12e>
}
    1c30:	70a2                	ld	ra,40(sp)
    1c32:	7402                	ld	s0,32(sp)
    1c34:	64e2                	ld	s1,24(sp)
    1c36:	6145                	addi	sp,sp,48
    1c38:	8082                	ret
    sbrk(PGSIZE - (top % PGSIZE));
    1c3a:	0347d513          	srli	a0,a5,0x34
    1c3e:	6785                	lui	a5,0x1
    1c40:	40a7853b          	subw	a0,a5,a0
    1c44:	00004097          	auipc	ra,0x4
    1c48:	c00080e7          	jalr	-1024(ra) # 5844 <sbrk>
    1c4c:	b7bd                	j	1bba <copyinstr3+0x24>
    printf("oops\n");
    1c4e:	00005517          	auipc	a0,0x5
    1c52:	f5a50513          	addi	a0,a0,-166 # 6ba8 <malloc+0xf2a>
    1c56:	00004097          	auipc	ra,0x4
    1c5a:	f6a080e7          	jalr	-150(ra) # 5bc0 <printf>
    exit(1);
    1c5e:	4505                	li	a0,1
    1c60:	00004097          	auipc	ra,0x4
    1c64:	b5c080e7          	jalr	-1188(ra) # 57bc <exit>
    printf("unlink(%s) returned %d, not -1\n", b, ret);
    1c68:	862a                	mv	a2,a0
    1c6a:	85a6                	mv	a1,s1
    1c6c:	00005517          	auipc	a0,0x5
    1c70:	e5c50513          	addi	a0,a0,-420 # 6ac8 <malloc+0xe4a>
    1c74:	00004097          	auipc	ra,0x4
    1c78:	f4c080e7          	jalr	-180(ra) # 5bc0 <printf>
    exit(1);
    1c7c:	4505                	li	a0,1
    1c7e:	00004097          	auipc	ra,0x4
    1c82:	b3e080e7          	jalr	-1218(ra) # 57bc <exit>
    printf("open(%s) returned %d, not -1\n", b, fd);
    1c86:	862a                	mv	a2,a0
    1c88:	85a6                	mv	a1,s1
    1c8a:	00005517          	auipc	a0,0x5
    1c8e:	e5e50513          	addi	a0,a0,-418 # 6ae8 <malloc+0xe6a>
    1c92:	00004097          	auipc	ra,0x4
    1c96:	f2e080e7          	jalr	-210(ra) # 5bc0 <printf>
    exit(1);
    1c9a:	4505                	li	a0,1
    1c9c:	00004097          	auipc	ra,0x4
    1ca0:	b20080e7          	jalr	-1248(ra) # 57bc <exit>
    printf("link(%s, %s) returned %d, not -1\n", b, b, ret);
    1ca4:	86aa                	mv	a3,a0
    1ca6:	8626                	mv	a2,s1
    1ca8:	85a6                	mv	a1,s1
    1caa:	00005517          	auipc	a0,0x5
    1cae:	e5e50513          	addi	a0,a0,-418 # 6b08 <malloc+0xe8a>
    1cb2:	00004097          	auipc	ra,0x4
    1cb6:	f0e080e7          	jalr	-242(ra) # 5bc0 <printf>
    exit(1);
    1cba:	4505                	li	a0,1
    1cbc:	00004097          	auipc	ra,0x4
    1cc0:	b00080e7          	jalr	-1280(ra) # 57bc <exit>
    printf("exec(%s) returned %d, not -1\n", b, fd);
    1cc4:	567d                	li	a2,-1
    1cc6:	85a6                	mv	a1,s1
    1cc8:	00005517          	auipc	a0,0x5
    1ccc:	e6850513          	addi	a0,a0,-408 # 6b30 <malloc+0xeb2>
    1cd0:	00004097          	auipc	ra,0x4
    1cd4:	ef0080e7          	jalr	-272(ra) # 5bc0 <printf>
    exit(1);
    1cd8:	4505                	li	a0,1
    1cda:	00004097          	auipc	ra,0x4
    1cde:	ae2080e7          	jalr	-1310(ra) # 57bc <exit>

0000000000001ce2 <rwsbrk>:
{
    1ce2:	1101                	addi	sp,sp,-32
    1ce4:	ec06                	sd	ra,24(sp)
    1ce6:	e822                	sd	s0,16(sp)
    1ce8:	e426                	sd	s1,8(sp)
    1cea:	e04a                	sd	s2,0(sp)
    1cec:	1000                	addi	s0,sp,32
  uint64 a = (uint64) sbrk(8192);
    1cee:	6509                	lui	a0,0x2
    1cf0:	00004097          	auipc	ra,0x4
    1cf4:	b54080e7          	jalr	-1196(ra) # 5844 <sbrk>
  if(a == 0xffffffffffffffffLL) {
    1cf8:	57fd                	li	a5,-1
    1cfa:	06f50363          	beq	a0,a5,1d60 <rwsbrk+0x7e>
    1cfe:	84aa                	mv	s1,a0
  if ((uint64) sbrk(-8192) ==  0xffffffffffffffffLL) {
    1d00:	7579                	lui	a0,0xffffe
    1d02:	00004097          	auipc	ra,0x4
    1d06:	b42080e7          	jalr	-1214(ra) # 5844 <sbrk>
    1d0a:	57fd                	li	a5,-1
    1d0c:	06f50763          	beq	a0,a5,1d7a <rwsbrk+0x98>
  fd = open("rwsbrk", O_CREATE|O_WRONLY);
    1d10:	20100593          	li	a1,513
    1d14:	00005517          	auipc	a0,0x5
    1d18:	ed450513          	addi	a0,a0,-300 # 6be8 <malloc+0xf6a>
    1d1c:	00004097          	auipc	ra,0x4
    1d20:	ae0080e7          	jalr	-1312(ra) # 57fc <open>
    1d24:	892a                	mv	s2,a0
  if(fd < 0){
    1d26:	06054763          	bltz	a0,1d94 <rwsbrk+0xb2>
  n = write(fd, (void*)(a+4096), 1024);
    1d2a:	6505                	lui	a0,0x1
    1d2c:	94aa                	add	s1,s1,a0
    1d2e:	40000613          	li	a2,1024
    1d32:	85a6                	mv	a1,s1
    1d34:	854a                	mv	a0,s2
    1d36:	00004097          	auipc	ra,0x4
    1d3a:	aa6080e7          	jalr	-1370(ra) # 57dc <write>
    1d3e:	862a                	mv	a2,a0
  if(n >= 0){
    1d40:	06054763          	bltz	a0,1dae <rwsbrk+0xcc>
    printf("write(fd, %p, 1024) returned %d, not -1\n", a+4096, n);
    1d44:	85a6                	mv	a1,s1
    1d46:	00005517          	auipc	a0,0x5
    1d4a:	ec250513          	addi	a0,a0,-318 # 6c08 <malloc+0xf8a>
    1d4e:	00004097          	auipc	ra,0x4
    1d52:	e72080e7          	jalr	-398(ra) # 5bc0 <printf>
    exit(1);
    1d56:	4505                	li	a0,1
    1d58:	00004097          	auipc	ra,0x4
    1d5c:	a64080e7          	jalr	-1436(ra) # 57bc <exit>
    printf("sbrk(rwsbrk) failed\n");
    1d60:	00005517          	auipc	a0,0x5
    1d64:	e5050513          	addi	a0,a0,-432 # 6bb0 <malloc+0xf32>
    1d68:	00004097          	auipc	ra,0x4
    1d6c:	e58080e7          	jalr	-424(ra) # 5bc0 <printf>
    exit(1);
    1d70:	4505                	li	a0,1
    1d72:	00004097          	auipc	ra,0x4
    1d76:	a4a080e7          	jalr	-1462(ra) # 57bc <exit>
    printf("sbrk(rwsbrk) shrink failed\n");
    1d7a:	00005517          	auipc	a0,0x5
    1d7e:	e4e50513          	addi	a0,a0,-434 # 6bc8 <malloc+0xf4a>
    1d82:	00004097          	auipc	ra,0x4
    1d86:	e3e080e7          	jalr	-450(ra) # 5bc0 <printf>
    exit(1);
    1d8a:	4505                	li	a0,1
    1d8c:	00004097          	auipc	ra,0x4
    1d90:	a30080e7          	jalr	-1488(ra) # 57bc <exit>
    printf("open(rwsbrk) failed\n");
    1d94:	00005517          	auipc	a0,0x5
    1d98:	e5c50513          	addi	a0,a0,-420 # 6bf0 <malloc+0xf72>
    1d9c:	00004097          	auipc	ra,0x4
    1da0:	e24080e7          	jalr	-476(ra) # 5bc0 <printf>
    exit(1);
    1da4:	4505                	li	a0,1
    1da6:	00004097          	auipc	ra,0x4
    1daa:	a16080e7          	jalr	-1514(ra) # 57bc <exit>
  close(fd);
    1dae:	854a                	mv	a0,s2
    1db0:	00004097          	auipc	ra,0x4
    1db4:	a34080e7          	jalr	-1484(ra) # 57e4 <close>
  unlink("rwsbrk");
    1db8:	00005517          	auipc	a0,0x5
    1dbc:	e3050513          	addi	a0,a0,-464 # 6be8 <malloc+0xf6a>
    1dc0:	00004097          	auipc	ra,0x4
    1dc4:	a4c080e7          	jalr	-1460(ra) # 580c <unlink>
  fd = open("README", O_RDONLY);
    1dc8:	4581                	li	a1,0
    1dca:	00005517          	auipc	a0,0x5
    1dce:	96650513          	addi	a0,a0,-1690 # 6730 <malloc+0xab2>
    1dd2:	00004097          	auipc	ra,0x4
    1dd6:	a2a080e7          	jalr	-1494(ra) # 57fc <open>
    1dda:	892a                	mv	s2,a0
  if(fd < 0){
    1ddc:	02054963          	bltz	a0,1e0e <rwsbrk+0x12c>
  n = read(fd, (void*)(a+4096), 10);
    1de0:	4629                	li	a2,10
    1de2:	85a6                	mv	a1,s1
    1de4:	00004097          	auipc	ra,0x4
    1de8:	9f0080e7          	jalr	-1552(ra) # 57d4 <read>
    1dec:	862a                	mv	a2,a0
  if(n >= 0){
    1dee:	02054d63          	bltz	a0,1e28 <rwsbrk+0x146>
    printf("read(fd, %p, 10) returned %d, not -1\n", a+4096, n);
    1df2:	85a6                	mv	a1,s1
    1df4:	00005517          	auipc	a0,0x5
    1df8:	e4450513          	addi	a0,a0,-444 # 6c38 <malloc+0xfba>
    1dfc:	00004097          	auipc	ra,0x4
    1e00:	dc4080e7          	jalr	-572(ra) # 5bc0 <printf>
    exit(1);
    1e04:	4505                	li	a0,1
    1e06:	00004097          	auipc	ra,0x4
    1e0a:	9b6080e7          	jalr	-1610(ra) # 57bc <exit>
    printf("open(rwsbrk) failed\n");
    1e0e:	00005517          	auipc	a0,0x5
    1e12:	de250513          	addi	a0,a0,-542 # 6bf0 <malloc+0xf72>
    1e16:	00004097          	auipc	ra,0x4
    1e1a:	daa080e7          	jalr	-598(ra) # 5bc0 <printf>
    exit(1);
    1e1e:	4505                	li	a0,1
    1e20:	00004097          	auipc	ra,0x4
    1e24:	99c080e7          	jalr	-1636(ra) # 57bc <exit>
  close(fd);
    1e28:	854a                	mv	a0,s2
    1e2a:	00004097          	auipc	ra,0x4
    1e2e:	9ba080e7          	jalr	-1606(ra) # 57e4 <close>
  exit(0);
    1e32:	4501                	li	a0,0
    1e34:	00004097          	auipc	ra,0x4
    1e38:	988080e7          	jalr	-1656(ra) # 57bc <exit>

0000000000001e3c <truncate1>:
{
    1e3c:	711d                	addi	sp,sp,-96
    1e3e:	ec86                	sd	ra,88(sp)
    1e40:	e8a2                	sd	s0,80(sp)
    1e42:	e4a6                	sd	s1,72(sp)
    1e44:	e0ca                	sd	s2,64(sp)
    1e46:	fc4e                	sd	s3,56(sp)
    1e48:	f852                	sd	s4,48(sp)
    1e4a:	f456                	sd	s5,40(sp)
    1e4c:	1080                	addi	s0,sp,96
    1e4e:	8aaa                	mv	s5,a0
  unlink("truncfile");
    1e50:	00005517          	auipc	a0,0x5
    1e54:	e1050513          	addi	a0,a0,-496 # 6c60 <malloc+0xfe2>
    1e58:	00004097          	auipc	ra,0x4
    1e5c:	9b4080e7          	jalr	-1612(ra) # 580c <unlink>
  int fd1 = open("truncfile", O_CREATE|O_WRONLY|O_TRUNC);
    1e60:	60100593          	li	a1,1537
    1e64:	00005517          	auipc	a0,0x5
    1e68:	dfc50513          	addi	a0,a0,-516 # 6c60 <malloc+0xfe2>
    1e6c:	00004097          	auipc	ra,0x4
    1e70:	990080e7          	jalr	-1648(ra) # 57fc <open>
    1e74:	84aa                	mv	s1,a0
  write(fd1, "abcd", 4);
    1e76:	4611                	li	a2,4
    1e78:	00005597          	auipc	a1,0x5
    1e7c:	df858593          	addi	a1,a1,-520 # 6c70 <malloc+0xff2>
    1e80:	00004097          	auipc	ra,0x4
    1e84:	95c080e7          	jalr	-1700(ra) # 57dc <write>
  close(fd1);
    1e88:	8526                	mv	a0,s1
    1e8a:	00004097          	auipc	ra,0x4
    1e8e:	95a080e7          	jalr	-1702(ra) # 57e4 <close>
  int fd2 = open("truncfile", O_RDONLY);
    1e92:	4581                	li	a1,0
    1e94:	00005517          	auipc	a0,0x5
    1e98:	dcc50513          	addi	a0,a0,-564 # 6c60 <malloc+0xfe2>
    1e9c:	00004097          	auipc	ra,0x4
    1ea0:	960080e7          	jalr	-1696(ra) # 57fc <open>
    1ea4:	84aa                	mv	s1,a0
  int n = read(fd2, buf, sizeof(buf));
    1ea6:	02000613          	li	a2,32
    1eaa:	fa040593          	addi	a1,s0,-96
    1eae:	00004097          	auipc	ra,0x4
    1eb2:	926080e7          	jalr	-1754(ra) # 57d4 <read>
  if(n != 4){
    1eb6:	4791                	li	a5,4
    1eb8:	0cf51e63          	bne	a0,a5,1f94 <truncate1+0x158>
  fd1 = open("truncfile", O_WRONLY|O_TRUNC);
    1ebc:	40100593          	li	a1,1025
    1ec0:	00005517          	auipc	a0,0x5
    1ec4:	da050513          	addi	a0,a0,-608 # 6c60 <malloc+0xfe2>
    1ec8:	00004097          	auipc	ra,0x4
    1ecc:	934080e7          	jalr	-1740(ra) # 57fc <open>
    1ed0:	89aa                	mv	s3,a0
  int fd3 = open("truncfile", O_RDONLY);
    1ed2:	4581                	li	a1,0
    1ed4:	00005517          	auipc	a0,0x5
    1ed8:	d8c50513          	addi	a0,a0,-628 # 6c60 <malloc+0xfe2>
    1edc:	00004097          	auipc	ra,0x4
    1ee0:	920080e7          	jalr	-1760(ra) # 57fc <open>
    1ee4:	892a                	mv	s2,a0
  n = read(fd3, buf, sizeof(buf));
    1ee6:	02000613          	li	a2,32
    1eea:	fa040593          	addi	a1,s0,-96
    1eee:	00004097          	auipc	ra,0x4
    1ef2:	8e6080e7          	jalr	-1818(ra) # 57d4 <read>
    1ef6:	8a2a                	mv	s4,a0
  if(n != 0){
    1ef8:	ed4d                	bnez	a0,1fb2 <truncate1+0x176>
  n = read(fd2, buf, sizeof(buf));
    1efa:	02000613          	li	a2,32
    1efe:	fa040593          	addi	a1,s0,-96
    1f02:	8526                	mv	a0,s1
    1f04:	00004097          	auipc	ra,0x4
    1f08:	8d0080e7          	jalr	-1840(ra) # 57d4 <read>
    1f0c:	8a2a                	mv	s4,a0
  if(n != 0){
    1f0e:	e971                	bnez	a0,1fe2 <truncate1+0x1a6>
  write(fd1, "abcdef", 6);
    1f10:	4619                	li	a2,6
    1f12:	00005597          	auipc	a1,0x5
    1f16:	dc658593          	addi	a1,a1,-570 # 6cd8 <malloc+0x105a>
    1f1a:	854e                	mv	a0,s3
    1f1c:	00004097          	auipc	ra,0x4
    1f20:	8c0080e7          	jalr	-1856(ra) # 57dc <write>
  n = read(fd3, buf, sizeof(buf));
    1f24:	02000613          	li	a2,32
    1f28:	fa040593          	addi	a1,s0,-96
    1f2c:	854a                	mv	a0,s2
    1f2e:	00004097          	auipc	ra,0x4
    1f32:	8a6080e7          	jalr	-1882(ra) # 57d4 <read>
  if(n != 6){
    1f36:	4799                	li	a5,6
    1f38:	0cf51d63          	bne	a0,a5,2012 <truncate1+0x1d6>
  n = read(fd2, buf, sizeof(buf));
    1f3c:	02000613          	li	a2,32
    1f40:	fa040593          	addi	a1,s0,-96
    1f44:	8526                	mv	a0,s1
    1f46:	00004097          	auipc	ra,0x4
    1f4a:	88e080e7          	jalr	-1906(ra) # 57d4 <read>
  if(n != 2){
    1f4e:	4789                	li	a5,2
    1f50:	0ef51063          	bne	a0,a5,2030 <truncate1+0x1f4>
  unlink("truncfile");
    1f54:	00005517          	auipc	a0,0x5
    1f58:	d0c50513          	addi	a0,a0,-756 # 6c60 <malloc+0xfe2>
    1f5c:	00004097          	auipc	ra,0x4
    1f60:	8b0080e7          	jalr	-1872(ra) # 580c <unlink>
  close(fd1);
    1f64:	854e                	mv	a0,s3
    1f66:	00004097          	auipc	ra,0x4
    1f6a:	87e080e7          	jalr	-1922(ra) # 57e4 <close>
  close(fd2);
    1f6e:	8526                	mv	a0,s1
    1f70:	00004097          	auipc	ra,0x4
    1f74:	874080e7          	jalr	-1932(ra) # 57e4 <close>
  close(fd3);
    1f78:	854a                	mv	a0,s2
    1f7a:	00004097          	auipc	ra,0x4
    1f7e:	86a080e7          	jalr	-1942(ra) # 57e4 <close>
}
    1f82:	60e6                	ld	ra,88(sp)
    1f84:	6446                	ld	s0,80(sp)
    1f86:	64a6                	ld	s1,72(sp)
    1f88:	6906                	ld	s2,64(sp)
    1f8a:	79e2                	ld	s3,56(sp)
    1f8c:	7a42                	ld	s4,48(sp)
    1f8e:	7aa2                	ld	s5,40(sp)
    1f90:	6125                	addi	sp,sp,96
    1f92:	8082                	ret
    printf("%s: read %d bytes, wanted 4\n", s, n);
    1f94:	862a                	mv	a2,a0
    1f96:	85d6                	mv	a1,s5
    1f98:	00005517          	auipc	a0,0x5
    1f9c:	ce050513          	addi	a0,a0,-800 # 6c78 <malloc+0xffa>
    1fa0:	00004097          	auipc	ra,0x4
    1fa4:	c20080e7          	jalr	-992(ra) # 5bc0 <printf>
    exit(1);
    1fa8:	4505                	li	a0,1
    1faa:	00004097          	auipc	ra,0x4
    1fae:	812080e7          	jalr	-2030(ra) # 57bc <exit>
    printf("aaa fd3=%d\n", fd3);
    1fb2:	85ca                	mv	a1,s2
    1fb4:	00005517          	auipc	a0,0x5
    1fb8:	ce450513          	addi	a0,a0,-796 # 6c98 <malloc+0x101a>
    1fbc:	00004097          	auipc	ra,0x4
    1fc0:	c04080e7          	jalr	-1020(ra) # 5bc0 <printf>
    printf("%s: read %d bytes, wanted 0\n", s, n);
    1fc4:	8652                	mv	a2,s4
    1fc6:	85d6                	mv	a1,s5
    1fc8:	00005517          	auipc	a0,0x5
    1fcc:	ce050513          	addi	a0,a0,-800 # 6ca8 <malloc+0x102a>
    1fd0:	00004097          	auipc	ra,0x4
    1fd4:	bf0080e7          	jalr	-1040(ra) # 5bc0 <printf>
    exit(1);
    1fd8:	4505                	li	a0,1
    1fda:	00003097          	auipc	ra,0x3
    1fde:	7e2080e7          	jalr	2018(ra) # 57bc <exit>
    printf("bbb fd2=%d\n", fd2);
    1fe2:	85a6                	mv	a1,s1
    1fe4:	00005517          	auipc	a0,0x5
    1fe8:	ce450513          	addi	a0,a0,-796 # 6cc8 <malloc+0x104a>
    1fec:	00004097          	auipc	ra,0x4
    1ff0:	bd4080e7          	jalr	-1068(ra) # 5bc0 <printf>
    printf("%s: read %d bytes, wanted 0\n", s, n);
    1ff4:	8652                	mv	a2,s4
    1ff6:	85d6                	mv	a1,s5
    1ff8:	00005517          	auipc	a0,0x5
    1ffc:	cb050513          	addi	a0,a0,-848 # 6ca8 <malloc+0x102a>
    2000:	00004097          	auipc	ra,0x4
    2004:	bc0080e7          	jalr	-1088(ra) # 5bc0 <printf>
    exit(1);
    2008:	4505                	li	a0,1
    200a:	00003097          	auipc	ra,0x3
    200e:	7b2080e7          	jalr	1970(ra) # 57bc <exit>
    printf("%s: read %d bytes, wanted 6\n", s, n);
    2012:	862a                	mv	a2,a0
    2014:	85d6                	mv	a1,s5
    2016:	00005517          	auipc	a0,0x5
    201a:	cca50513          	addi	a0,a0,-822 # 6ce0 <malloc+0x1062>
    201e:	00004097          	auipc	ra,0x4
    2022:	ba2080e7          	jalr	-1118(ra) # 5bc0 <printf>
    exit(1);
    2026:	4505                	li	a0,1
    2028:	00003097          	auipc	ra,0x3
    202c:	794080e7          	jalr	1940(ra) # 57bc <exit>
    printf("%s: read %d bytes, wanted 2\n", s, n);
    2030:	862a                	mv	a2,a0
    2032:	85d6                	mv	a1,s5
    2034:	00005517          	auipc	a0,0x5
    2038:	ccc50513          	addi	a0,a0,-820 # 6d00 <malloc+0x1082>
    203c:	00004097          	auipc	ra,0x4
    2040:	b84080e7          	jalr	-1148(ra) # 5bc0 <printf>
    exit(1);
    2044:	4505                	li	a0,1
    2046:	00003097          	auipc	ra,0x3
    204a:	776080e7          	jalr	1910(ra) # 57bc <exit>

000000000000204e <truncate2>:
{
    204e:	7179                	addi	sp,sp,-48
    2050:	f406                	sd	ra,40(sp)
    2052:	f022                	sd	s0,32(sp)
    2054:	ec26                	sd	s1,24(sp)
    2056:	e84a                	sd	s2,16(sp)
    2058:	e44e                	sd	s3,8(sp)
    205a:	1800                	addi	s0,sp,48
    205c:	89aa                	mv	s3,a0
  unlink("truncfile");
    205e:	00005517          	auipc	a0,0x5
    2062:	c0250513          	addi	a0,a0,-1022 # 6c60 <malloc+0xfe2>
    2066:	00003097          	auipc	ra,0x3
    206a:	7a6080e7          	jalr	1958(ra) # 580c <unlink>
  int fd1 = open("truncfile", O_CREATE|O_TRUNC|O_WRONLY);
    206e:	60100593          	li	a1,1537
    2072:	00005517          	auipc	a0,0x5
    2076:	bee50513          	addi	a0,a0,-1042 # 6c60 <malloc+0xfe2>
    207a:	00003097          	auipc	ra,0x3
    207e:	782080e7          	jalr	1922(ra) # 57fc <open>
    2082:	84aa                	mv	s1,a0
  write(fd1, "abcd", 4);
    2084:	4611                	li	a2,4
    2086:	00005597          	auipc	a1,0x5
    208a:	bea58593          	addi	a1,a1,-1046 # 6c70 <malloc+0xff2>
    208e:	00003097          	auipc	ra,0x3
    2092:	74e080e7          	jalr	1870(ra) # 57dc <write>
  int fd2 = open("truncfile", O_TRUNC|O_WRONLY);
    2096:	40100593          	li	a1,1025
    209a:	00005517          	auipc	a0,0x5
    209e:	bc650513          	addi	a0,a0,-1082 # 6c60 <malloc+0xfe2>
    20a2:	00003097          	auipc	ra,0x3
    20a6:	75a080e7          	jalr	1882(ra) # 57fc <open>
    20aa:	892a                	mv	s2,a0
  int n = write(fd1, "x", 1);
    20ac:	4605                	li	a2,1
    20ae:	00004597          	auipc	a1,0x4
    20b2:	6fa58593          	addi	a1,a1,1786 # 67a8 <malloc+0xb2a>
    20b6:	8526                	mv	a0,s1
    20b8:	00003097          	auipc	ra,0x3
    20bc:	724080e7          	jalr	1828(ra) # 57dc <write>
  if(n != -1){
    20c0:	57fd                	li	a5,-1
    20c2:	02f51b63          	bne	a0,a5,20f8 <truncate2+0xaa>
  unlink("truncfile");
    20c6:	00005517          	auipc	a0,0x5
    20ca:	b9a50513          	addi	a0,a0,-1126 # 6c60 <malloc+0xfe2>
    20ce:	00003097          	auipc	ra,0x3
    20d2:	73e080e7          	jalr	1854(ra) # 580c <unlink>
  close(fd1);
    20d6:	8526                	mv	a0,s1
    20d8:	00003097          	auipc	ra,0x3
    20dc:	70c080e7          	jalr	1804(ra) # 57e4 <close>
  close(fd2);
    20e0:	854a                	mv	a0,s2
    20e2:	00003097          	auipc	ra,0x3
    20e6:	702080e7          	jalr	1794(ra) # 57e4 <close>
}
    20ea:	70a2                	ld	ra,40(sp)
    20ec:	7402                	ld	s0,32(sp)
    20ee:	64e2                	ld	s1,24(sp)
    20f0:	6942                	ld	s2,16(sp)
    20f2:	69a2                	ld	s3,8(sp)
    20f4:	6145                	addi	sp,sp,48
    20f6:	8082                	ret
    printf("%s: write returned %d, expected -1\n", s, n);
    20f8:	862a                	mv	a2,a0
    20fa:	85ce                	mv	a1,s3
    20fc:	00005517          	auipc	a0,0x5
    2100:	c2450513          	addi	a0,a0,-988 # 6d20 <malloc+0x10a2>
    2104:	00004097          	auipc	ra,0x4
    2108:	abc080e7          	jalr	-1348(ra) # 5bc0 <printf>
    exit(1);
    210c:	4505                	li	a0,1
    210e:	00003097          	auipc	ra,0x3
    2112:	6ae080e7          	jalr	1710(ra) # 57bc <exit>

0000000000002116 <truncate3>:
{
    2116:	7159                	addi	sp,sp,-112
    2118:	f486                	sd	ra,104(sp)
    211a:	f0a2                	sd	s0,96(sp)
    211c:	eca6                	sd	s1,88(sp)
    211e:	e8ca                	sd	s2,80(sp)
    2120:	e4ce                	sd	s3,72(sp)
    2122:	e0d2                	sd	s4,64(sp)
    2124:	fc56                	sd	s5,56(sp)
    2126:	1880                	addi	s0,sp,112
    2128:	892a                	mv	s2,a0
  close(open("truncfile", O_CREATE|O_TRUNC|O_WRONLY));
    212a:	60100593          	li	a1,1537
    212e:	00005517          	auipc	a0,0x5
    2132:	b3250513          	addi	a0,a0,-1230 # 6c60 <malloc+0xfe2>
    2136:	00003097          	auipc	ra,0x3
    213a:	6c6080e7          	jalr	1734(ra) # 57fc <open>
    213e:	00003097          	auipc	ra,0x3
    2142:	6a6080e7          	jalr	1702(ra) # 57e4 <close>
  pid = fork();
    2146:	00003097          	auipc	ra,0x3
    214a:	66e080e7          	jalr	1646(ra) # 57b4 <fork>
  if(pid < 0){
    214e:	08054063          	bltz	a0,21ce <truncate3+0xb8>
  if(pid == 0){
    2152:	e969                	bnez	a0,2224 <truncate3+0x10e>
    2154:	06400993          	li	s3,100
      int fd = open("truncfile", O_WRONLY);
    2158:	00005a17          	auipc	s4,0x5
    215c:	b08a0a13          	addi	s4,s4,-1272 # 6c60 <malloc+0xfe2>
      int n = write(fd, "1234567890", 10);
    2160:	00005a97          	auipc	s5,0x5
    2164:	c00a8a93          	addi	s5,s5,-1024 # 6d60 <malloc+0x10e2>
      int fd = open("truncfile", O_WRONLY);
    2168:	4585                	li	a1,1
    216a:	8552                	mv	a0,s4
    216c:	00003097          	auipc	ra,0x3
    2170:	690080e7          	jalr	1680(ra) # 57fc <open>
    2174:	84aa                	mv	s1,a0
      if(fd < 0){
    2176:	06054a63          	bltz	a0,21ea <truncate3+0xd4>
      int n = write(fd, "1234567890", 10);
    217a:	4629                	li	a2,10
    217c:	85d6                	mv	a1,s5
    217e:	00003097          	auipc	ra,0x3
    2182:	65e080e7          	jalr	1630(ra) # 57dc <write>
      if(n != 10){
    2186:	47a9                	li	a5,10
    2188:	06f51f63          	bne	a0,a5,2206 <truncate3+0xf0>
      close(fd);
    218c:	8526                	mv	a0,s1
    218e:	00003097          	auipc	ra,0x3
    2192:	656080e7          	jalr	1622(ra) # 57e4 <close>
      fd = open("truncfile", O_RDONLY);
    2196:	4581                	li	a1,0
    2198:	8552                	mv	a0,s4
    219a:	00003097          	auipc	ra,0x3
    219e:	662080e7          	jalr	1634(ra) # 57fc <open>
    21a2:	84aa                	mv	s1,a0
      read(fd, buf, sizeof(buf));
    21a4:	02000613          	li	a2,32
    21a8:	f9840593          	addi	a1,s0,-104
    21ac:	00003097          	auipc	ra,0x3
    21b0:	628080e7          	jalr	1576(ra) # 57d4 <read>
      close(fd);
    21b4:	8526                	mv	a0,s1
    21b6:	00003097          	auipc	ra,0x3
    21ba:	62e080e7          	jalr	1582(ra) # 57e4 <close>
    for(int i = 0; i < 100; i++){
    21be:	39fd                	addiw	s3,s3,-1
    21c0:	fa0994e3          	bnez	s3,2168 <truncate3+0x52>
    exit(0);
    21c4:	4501                	li	a0,0
    21c6:	00003097          	auipc	ra,0x3
    21ca:	5f6080e7          	jalr	1526(ra) # 57bc <exit>
    printf("%s: fork failed\n", s);
    21ce:	85ca                	mv	a1,s2
    21d0:	00004517          	auipc	a0,0x4
    21d4:	cb050513          	addi	a0,a0,-848 # 5e80 <malloc+0x202>
    21d8:	00004097          	auipc	ra,0x4
    21dc:	9e8080e7          	jalr	-1560(ra) # 5bc0 <printf>
    exit(1);
    21e0:	4505                	li	a0,1
    21e2:	00003097          	auipc	ra,0x3
    21e6:	5da080e7          	jalr	1498(ra) # 57bc <exit>
        printf("%s: open failed\n", s);
    21ea:	85ca                	mv	a1,s2
    21ec:	00005517          	auipc	a0,0x5
    21f0:	b5c50513          	addi	a0,a0,-1188 # 6d48 <malloc+0x10ca>
    21f4:	00004097          	auipc	ra,0x4
    21f8:	9cc080e7          	jalr	-1588(ra) # 5bc0 <printf>
        exit(1);
    21fc:	4505                	li	a0,1
    21fe:	00003097          	auipc	ra,0x3
    2202:	5be080e7          	jalr	1470(ra) # 57bc <exit>
        printf("%s: write got %d, expected 10\n", s, n);
    2206:	862a                	mv	a2,a0
    2208:	85ca                	mv	a1,s2
    220a:	00005517          	auipc	a0,0x5
    220e:	b6650513          	addi	a0,a0,-1178 # 6d70 <malloc+0x10f2>
    2212:	00004097          	auipc	ra,0x4
    2216:	9ae080e7          	jalr	-1618(ra) # 5bc0 <printf>
        exit(1);
    221a:	4505                	li	a0,1
    221c:	00003097          	auipc	ra,0x3
    2220:	5a0080e7          	jalr	1440(ra) # 57bc <exit>
    2224:	09600993          	li	s3,150
    int fd = open("truncfile", O_CREATE|O_WRONLY|O_TRUNC);
    2228:	00005a17          	auipc	s4,0x5
    222c:	a38a0a13          	addi	s4,s4,-1480 # 6c60 <malloc+0xfe2>
    int n = write(fd, "xxx", 3);
    2230:	00005a97          	auipc	s5,0x5
    2234:	b60a8a93          	addi	s5,s5,-1184 # 6d90 <malloc+0x1112>
    int fd = open("truncfile", O_CREATE|O_WRONLY|O_TRUNC);
    2238:	60100593          	li	a1,1537
    223c:	8552                	mv	a0,s4
    223e:	00003097          	auipc	ra,0x3
    2242:	5be080e7          	jalr	1470(ra) # 57fc <open>
    2246:	84aa                	mv	s1,a0
    if(fd < 0){
    2248:	04054763          	bltz	a0,2296 <truncate3+0x180>
    int n = write(fd, "xxx", 3);
    224c:	460d                	li	a2,3
    224e:	85d6                	mv	a1,s5
    2250:	00003097          	auipc	ra,0x3
    2254:	58c080e7          	jalr	1420(ra) # 57dc <write>
    if(n != 3){
    2258:	478d                	li	a5,3
    225a:	04f51c63          	bne	a0,a5,22b2 <truncate3+0x19c>
    close(fd);
    225e:	8526                	mv	a0,s1
    2260:	00003097          	auipc	ra,0x3
    2264:	584080e7          	jalr	1412(ra) # 57e4 <close>
  for(int i = 0; i < 150; i++){
    2268:	39fd                	addiw	s3,s3,-1
    226a:	fc0997e3          	bnez	s3,2238 <truncate3+0x122>
  wait(&xstatus);
    226e:	fbc40513          	addi	a0,s0,-68
    2272:	00003097          	auipc	ra,0x3
    2276:	552080e7          	jalr	1362(ra) # 57c4 <wait>
  unlink("truncfile");
    227a:	00005517          	auipc	a0,0x5
    227e:	9e650513          	addi	a0,a0,-1562 # 6c60 <malloc+0xfe2>
    2282:	00003097          	auipc	ra,0x3
    2286:	58a080e7          	jalr	1418(ra) # 580c <unlink>
  exit(xstatus);
    228a:	fbc42503          	lw	a0,-68(s0)
    228e:	00003097          	auipc	ra,0x3
    2292:	52e080e7          	jalr	1326(ra) # 57bc <exit>
      printf("%s: open failed\n", s);
    2296:	85ca                	mv	a1,s2
    2298:	00005517          	auipc	a0,0x5
    229c:	ab050513          	addi	a0,a0,-1360 # 6d48 <malloc+0x10ca>
    22a0:	00004097          	auipc	ra,0x4
    22a4:	920080e7          	jalr	-1760(ra) # 5bc0 <printf>
      exit(1);
    22a8:	4505                	li	a0,1
    22aa:	00003097          	auipc	ra,0x3
    22ae:	512080e7          	jalr	1298(ra) # 57bc <exit>
      printf("%s: write got %d, expected 3\n", s, n);
    22b2:	862a                	mv	a2,a0
    22b4:	85ca                	mv	a1,s2
    22b6:	00005517          	auipc	a0,0x5
    22ba:	ae250513          	addi	a0,a0,-1310 # 6d98 <malloc+0x111a>
    22be:	00004097          	auipc	ra,0x4
    22c2:	902080e7          	jalr	-1790(ra) # 5bc0 <printf>
      exit(1);
    22c6:	4505                	li	a0,1
    22c8:	00003097          	auipc	ra,0x3
    22cc:	4f4080e7          	jalr	1268(ra) # 57bc <exit>

00000000000022d0 <dirtest>:
{
    22d0:	1101                	addi	sp,sp,-32
    22d2:	ec06                	sd	ra,24(sp)
    22d4:	e822                	sd	s0,16(sp)
    22d6:	e426                	sd	s1,8(sp)
    22d8:	1000                	addi	s0,sp,32
    22da:	84aa                	mv	s1,a0
  if(mkdir("dir0") < 0){
    22dc:	00005517          	auipc	a0,0x5
    22e0:	adc50513          	addi	a0,a0,-1316 # 6db8 <malloc+0x113a>
    22e4:	00003097          	auipc	ra,0x3
    22e8:	540080e7          	jalr	1344(ra) # 5824 <mkdir>
    22ec:	04054563          	bltz	a0,2336 <dirtest+0x66>
  if(chdir("dir0") < 0){
    22f0:	00005517          	auipc	a0,0x5
    22f4:	ac850513          	addi	a0,a0,-1336 # 6db8 <malloc+0x113a>
    22f8:	00003097          	auipc	ra,0x3
    22fc:	534080e7          	jalr	1332(ra) # 582c <chdir>
    2300:	04054963          	bltz	a0,2352 <dirtest+0x82>
  if(chdir("..") < 0){
    2304:	00004517          	auipc	a0,0x4
    2308:	2d450513          	addi	a0,a0,724 # 65d8 <malloc+0x95a>
    230c:	00003097          	auipc	ra,0x3
    2310:	520080e7          	jalr	1312(ra) # 582c <chdir>
    2314:	04054d63          	bltz	a0,236e <dirtest+0x9e>
  if(unlink("dir0") < 0){
    2318:	00005517          	auipc	a0,0x5
    231c:	aa050513          	addi	a0,a0,-1376 # 6db8 <malloc+0x113a>
    2320:	00003097          	auipc	ra,0x3
    2324:	4ec080e7          	jalr	1260(ra) # 580c <unlink>
    2328:	06054163          	bltz	a0,238a <dirtest+0xba>
}
    232c:	60e2                	ld	ra,24(sp)
    232e:	6442                	ld	s0,16(sp)
    2330:	64a2                	ld	s1,8(sp)
    2332:	6105                	addi	sp,sp,32
    2334:	8082                	ret
    printf("%s: mkdir failed\n", s);
    2336:	85a6                	mv	a1,s1
    2338:	00004517          	auipc	a0,0x4
    233c:	1a850513          	addi	a0,a0,424 # 64e0 <malloc+0x862>
    2340:	00004097          	auipc	ra,0x4
    2344:	880080e7          	jalr	-1920(ra) # 5bc0 <printf>
    exit(1);
    2348:	4505                	li	a0,1
    234a:	00003097          	auipc	ra,0x3
    234e:	472080e7          	jalr	1138(ra) # 57bc <exit>
    printf("%s: chdir dir0 failed\n", s);
    2352:	85a6                	mv	a1,s1
    2354:	00005517          	auipc	a0,0x5
    2358:	a6c50513          	addi	a0,a0,-1428 # 6dc0 <malloc+0x1142>
    235c:	00004097          	auipc	ra,0x4
    2360:	864080e7          	jalr	-1948(ra) # 5bc0 <printf>
    exit(1);
    2364:	4505                	li	a0,1
    2366:	00003097          	auipc	ra,0x3
    236a:	456080e7          	jalr	1110(ra) # 57bc <exit>
    printf("%s: chdir .. failed\n", s);
    236e:	85a6                	mv	a1,s1
    2370:	00005517          	auipc	a0,0x5
    2374:	a6850513          	addi	a0,a0,-1432 # 6dd8 <malloc+0x115a>
    2378:	00004097          	auipc	ra,0x4
    237c:	848080e7          	jalr	-1976(ra) # 5bc0 <printf>
    exit(1);
    2380:	4505                	li	a0,1
    2382:	00003097          	auipc	ra,0x3
    2386:	43a080e7          	jalr	1082(ra) # 57bc <exit>
    printf("%s: unlink dir0 failed\n", s);
    238a:	85a6                	mv	a1,s1
    238c:	00005517          	auipc	a0,0x5
    2390:	a6450513          	addi	a0,a0,-1436 # 6df0 <malloc+0x1172>
    2394:	00004097          	auipc	ra,0x4
    2398:	82c080e7          	jalr	-2004(ra) # 5bc0 <printf>
    exit(1);
    239c:	4505                	li	a0,1
    239e:	00003097          	auipc	ra,0x3
    23a2:	41e080e7          	jalr	1054(ra) # 57bc <exit>

00000000000023a6 <exectest>:
{
    23a6:	715d                	addi	sp,sp,-80
    23a8:	e486                	sd	ra,72(sp)
    23aa:	e0a2                	sd	s0,64(sp)
    23ac:	fc26                	sd	s1,56(sp)
    23ae:	f84a                	sd	s2,48(sp)
    23b0:	0880                	addi	s0,sp,80
    23b2:	892a                	mv	s2,a0
  char *echoargv[] = { "echo", "OK", 0 };
    23b4:	00004797          	auipc	a5,0x4
    23b8:	b8c78793          	addi	a5,a5,-1140 # 5f40 <malloc+0x2c2>
    23bc:	fcf43023          	sd	a5,-64(s0)
    23c0:	00005797          	auipc	a5,0x5
    23c4:	a4878793          	addi	a5,a5,-1464 # 6e08 <malloc+0x118a>
    23c8:	fcf43423          	sd	a5,-56(s0)
    23cc:	fc043823          	sd	zero,-48(s0)
  unlink("echo-ok");
    23d0:	00005517          	auipc	a0,0x5
    23d4:	a4050513          	addi	a0,a0,-1472 # 6e10 <malloc+0x1192>
    23d8:	00003097          	auipc	ra,0x3
    23dc:	434080e7          	jalr	1076(ra) # 580c <unlink>
  pid = fork();
    23e0:	00003097          	auipc	ra,0x3
    23e4:	3d4080e7          	jalr	980(ra) # 57b4 <fork>
  if(pid < 0) {
    23e8:	04054663          	bltz	a0,2434 <exectest+0x8e>
    23ec:	84aa                	mv	s1,a0
  if(pid == 0) {
    23ee:	e959                	bnez	a0,2484 <exectest+0xde>
    close(1);
    23f0:	4505                	li	a0,1
    23f2:	00003097          	auipc	ra,0x3
    23f6:	3f2080e7          	jalr	1010(ra) # 57e4 <close>
    fd = open("echo-ok", O_CREATE|O_WRONLY);
    23fa:	20100593          	li	a1,513
    23fe:	00005517          	auipc	a0,0x5
    2402:	a1250513          	addi	a0,a0,-1518 # 6e10 <malloc+0x1192>
    2406:	00003097          	auipc	ra,0x3
    240a:	3f6080e7          	jalr	1014(ra) # 57fc <open>
    if(fd < 0) {
    240e:	04054163          	bltz	a0,2450 <exectest+0xaa>
    if(fd != 1) {
    2412:	4785                	li	a5,1
    2414:	04f50c63          	beq	a0,a5,246c <exectest+0xc6>
      printf("%s: wrong fd\n", s);
    2418:	85ca                	mv	a1,s2
    241a:	00005517          	auipc	a0,0x5
    241e:	a1650513          	addi	a0,a0,-1514 # 6e30 <malloc+0x11b2>
    2422:	00003097          	auipc	ra,0x3
    2426:	79e080e7          	jalr	1950(ra) # 5bc0 <printf>
      exit(1);
    242a:	4505                	li	a0,1
    242c:	00003097          	auipc	ra,0x3
    2430:	390080e7          	jalr	912(ra) # 57bc <exit>
     printf("%s: fork failed\n", s);
    2434:	85ca                	mv	a1,s2
    2436:	00004517          	auipc	a0,0x4
    243a:	a4a50513          	addi	a0,a0,-1462 # 5e80 <malloc+0x202>
    243e:	00003097          	auipc	ra,0x3
    2442:	782080e7          	jalr	1922(ra) # 5bc0 <printf>
     exit(1);
    2446:	4505                	li	a0,1
    2448:	00003097          	auipc	ra,0x3
    244c:	374080e7          	jalr	884(ra) # 57bc <exit>
      printf("%s: create failed\n", s);
    2450:	85ca                	mv	a1,s2
    2452:	00005517          	auipc	a0,0x5
    2456:	9c650513          	addi	a0,a0,-1594 # 6e18 <malloc+0x119a>
    245a:	00003097          	auipc	ra,0x3
    245e:	766080e7          	jalr	1894(ra) # 5bc0 <printf>
      exit(1);
    2462:	4505                	li	a0,1
    2464:	00003097          	auipc	ra,0x3
    2468:	358080e7          	jalr	856(ra) # 57bc <exit>
    if(exec("echo", echoargv) < 0){
    246c:	fc040593          	addi	a1,s0,-64
    2470:	00004517          	auipc	a0,0x4
    2474:	ad050513          	addi	a0,a0,-1328 # 5f40 <malloc+0x2c2>
    2478:	00003097          	auipc	ra,0x3
    247c:	37c080e7          	jalr	892(ra) # 57f4 <exec>
    2480:	02054163          	bltz	a0,24a2 <exectest+0xfc>
  if (wait(&xstatus) != pid) {
    2484:	fdc40513          	addi	a0,s0,-36
    2488:	00003097          	auipc	ra,0x3
    248c:	33c080e7          	jalr	828(ra) # 57c4 <wait>
    2490:	02951763          	bne	a0,s1,24be <exectest+0x118>
  if(xstatus != 0)
    2494:	fdc42503          	lw	a0,-36(s0)
    2498:	cd0d                	beqz	a0,24d2 <exectest+0x12c>
    exit(xstatus);
    249a:	00003097          	auipc	ra,0x3
    249e:	322080e7          	jalr	802(ra) # 57bc <exit>
      printf("%s: exec echo failed\n", s);
    24a2:	85ca                	mv	a1,s2
    24a4:	00005517          	auipc	a0,0x5
    24a8:	99c50513          	addi	a0,a0,-1636 # 6e40 <malloc+0x11c2>
    24ac:	00003097          	auipc	ra,0x3
    24b0:	714080e7          	jalr	1812(ra) # 5bc0 <printf>
      exit(1);
    24b4:	4505                	li	a0,1
    24b6:	00003097          	auipc	ra,0x3
    24ba:	306080e7          	jalr	774(ra) # 57bc <exit>
    printf("%s: wait failed!\n", s);
    24be:	85ca                	mv	a1,s2
    24c0:	00005517          	auipc	a0,0x5
    24c4:	99850513          	addi	a0,a0,-1640 # 6e58 <malloc+0x11da>
    24c8:	00003097          	auipc	ra,0x3
    24cc:	6f8080e7          	jalr	1784(ra) # 5bc0 <printf>
    24d0:	b7d1                	j	2494 <exectest+0xee>
  fd = open("echo-ok", O_RDONLY);
    24d2:	4581                	li	a1,0
    24d4:	00005517          	auipc	a0,0x5
    24d8:	93c50513          	addi	a0,a0,-1732 # 6e10 <malloc+0x1192>
    24dc:	00003097          	auipc	ra,0x3
    24e0:	320080e7          	jalr	800(ra) # 57fc <open>
  if(fd < 0) {
    24e4:	02054a63          	bltz	a0,2518 <exectest+0x172>
  if (read(fd, buf, 2) != 2) {
    24e8:	4609                	li	a2,2
    24ea:	fb840593          	addi	a1,s0,-72
    24ee:	00003097          	auipc	ra,0x3
    24f2:	2e6080e7          	jalr	742(ra) # 57d4 <read>
    24f6:	4789                	li	a5,2
    24f8:	02f50e63          	beq	a0,a5,2534 <exectest+0x18e>
    printf("%s: read failed\n", s);
    24fc:	85ca                	mv	a1,s2
    24fe:	00004517          	auipc	a0,0x4
    2502:	b5250513          	addi	a0,a0,-1198 # 6050 <malloc+0x3d2>
    2506:	00003097          	auipc	ra,0x3
    250a:	6ba080e7          	jalr	1722(ra) # 5bc0 <printf>
    exit(1);
    250e:	4505                	li	a0,1
    2510:	00003097          	auipc	ra,0x3
    2514:	2ac080e7          	jalr	684(ra) # 57bc <exit>
    printf("%s: open failed\n", s);
    2518:	85ca                	mv	a1,s2
    251a:	00005517          	auipc	a0,0x5
    251e:	82e50513          	addi	a0,a0,-2002 # 6d48 <malloc+0x10ca>
    2522:	00003097          	auipc	ra,0x3
    2526:	69e080e7          	jalr	1694(ra) # 5bc0 <printf>
    exit(1);
    252a:	4505                	li	a0,1
    252c:	00003097          	auipc	ra,0x3
    2530:	290080e7          	jalr	656(ra) # 57bc <exit>
  unlink("echo-ok");
    2534:	00005517          	auipc	a0,0x5
    2538:	8dc50513          	addi	a0,a0,-1828 # 6e10 <malloc+0x1192>
    253c:	00003097          	auipc	ra,0x3
    2540:	2d0080e7          	jalr	720(ra) # 580c <unlink>
  if(buf[0] == 'O' && buf[1] == 'K')
    2544:	fb844703          	lbu	a4,-72(s0)
    2548:	04f00793          	li	a5,79
    254c:	00f71863          	bne	a4,a5,255c <exectest+0x1b6>
    2550:	fb944703          	lbu	a4,-71(s0)
    2554:	04b00793          	li	a5,75
    2558:	02f70063          	beq	a4,a5,2578 <exectest+0x1d2>
    printf("%s: wrong output\n", s);
    255c:	85ca                	mv	a1,s2
    255e:	00005517          	auipc	a0,0x5
    2562:	91250513          	addi	a0,a0,-1774 # 6e70 <malloc+0x11f2>
    2566:	00003097          	auipc	ra,0x3
    256a:	65a080e7          	jalr	1626(ra) # 5bc0 <printf>
    exit(1);
    256e:	4505                	li	a0,1
    2570:	00003097          	auipc	ra,0x3
    2574:	24c080e7          	jalr	588(ra) # 57bc <exit>
    exit(0);
    2578:	4501                	li	a0,0
    257a:	00003097          	auipc	ra,0x3
    257e:	242080e7          	jalr	578(ra) # 57bc <exit>

0000000000002582 <preempt>:
{
    2582:	7139                	addi	sp,sp,-64
    2584:	fc06                	sd	ra,56(sp)
    2586:	f822                	sd	s0,48(sp)
    2588:	f426                	sd	s1,40(sp)
    258a:	f04a                	sd	s2,32(sp)
    258c:	ec4e                	sd	s3,24(sp)
    258e:	e852                	sd	s4,16(sp)
    2590:	0080                	addi	s0,sp,64
    2592:	892a                	mv	s2,a0
  pid1 = fork();
    2594:	00003097          	auipc	ra,0x3
    2598:	220080e7          	jalr	544(ra) # 57b4 <fork>
  if(pid1 < 0) {
    259c:	00054563          	bltz	a0,25a6 <preempt+0x24>
    25a0:	84aa                	mv	s1,a0
  if(pid1 == 0)
    25a2:	e105                	bnez	a0,25c2 <preempt+0x40>
    for(;;)
    25a4:	a001                	j	25a4 <preempt+0x22>
    printf("%s: fork failed", s);
    25a6:	85ca                	mv	a1,s2
    25a8:	00005517          	auipc	a0,0x5
    25ac:	8e050513          	addi	a0,a0,-1824 # 6e88 <malloc+0x120a>
    25b0:	00003097          	auipc	ra,0x3
    25b4:	610080e7          	jalr	1552(ra) # 5bc0 <printf>
    exit(1);
    25b8:	4505                	li	a0,1
    25ba:	00003097          	auipc	ra,0x3
    25be:	202080e7          	jalr	514(ra) # 57bc <exit>
  pid2 = fork();
    25c2:	00003097          	auipc	ra,0x3
    25c6:	1f2080e7          	jalr	498(ra) # 57b4 <fork>
    25ca:	89aa                	mv	s3,a0
  if(pid2 < 0) {
    25cc:	00054463          	bltz	a0,25d4 <preempt+0x52>
  if(pid2 == 0)
    25d0:	e105                	bnez	a0,25f0 <preempt+0x6e>
    for(;;)
    25d2:	a001                	j	25d2 <preempt+0x50>
    printf("%s: fork failed\n", s);
    25d4:	85ca                	mv	a1,s2
    25d6:	00004517          	auipc	a0,0x4
    25da:	8aa50513          	addi	a0,a0,-1878 # 5e80 <malloc+0x202>
    25de:	00003097          	auipc	ra,0x3
    25e2:	5e2080e7          	jalr	1506(ra) # 5bc0 <printf>
    exit(1);
    25e6:	4505                	li	a0,1
    25e8:	00003097          	auipc	ra,0x3
    25ec:	1d4080e7          	jalr	468(ra) # 57bc <exit>
  pipe(pfds);
    25f0:	fc840513          	addi	a0,s0,-56
    25f4:	00003097          	auipc	ra,0x3
    25f8:	1d8080e7          	jalr	472(ra) # 57cc <pipe>
  pid3 = fork();
    25fc:	00003097          	auipc	ra,0x3
    2600:	1b8080e7          	jalr	440(ra) # 57b4 <fork>
    2604:	8a2a                	mv	s4,a0
  if(pid3 < 0) {
    2606:	02054e63          	bltz	a0,2642 <preempt+0xc0>
  if(pid3 == 0){
    260a:	e525                	bnez	a0,2672 <preempt+0xf0>
    close(pfds[0]);
    260c:	fc842503          	lw	a0,-56(s0)
    2610:	00003097          	auipc	ra,0x3
    2614:	1d4080e7          	jalr	468(ra) # 57e4 <close>
    if(write(pfds[1], "x", 1) != 1)
    2618:	4605                	li	a2,1
    261a:	00004597          	auipc	a1,0x4
    261e:	18e58593          	addi	a1,a1,398 # 67a8 <malloc+0xb2a>
    2622:	fcc42503          	lw	a0,-52(s0)
    2626:	00003097          	auipc	ra,0x3
    262a:	1b6080e7          	jalr	438(ra) # 57dc <write>
    262e:	4785                	li	a5,1
    2630:	02f51763          	bne	a0,a5,265e <preempt+0xdc>
    close(pfds[1]);
    2634:	fcc42503          	lw	a0,-52(s0)
    2638:	00003097          	auipc	ra,0x3
    263c:	1ac080e7          	jalr	428(ra) # 57e4 <close>
    for(;;)
    2640:	a001                	j	2640 <preempt+0xbe>
     printf("%s: fork failed\n", s);
    2642:	85ca                	mv	a1,s2
    2644:	00004517          	auipc	a0,0x4
    2648:	83c50513          	addi	a0,a0,-1988 # 5e80 <malloc+0x202>
    264c:	00003097          	auipc	ra,0x3
    2650:	574080e7          	jalr	1396(ra) # 5bc0 <printf>
     exit(1);
    2654:	4505                	li	a0,1
    2656:	00003097          	auipc	ra,0x3
    265a:	166080e7          	jalr	358(ra) # 57bc <exit>
      printf("%s: preempt write error", s);
    265e:	85ca                	mv	a1,s2
    2660:	00005517          	auipc	a0,0x5
    2664:	83850513          	addi	a0,a0,-1992 # 6e98 <malloc+0x121a>
    2668:	00003097          	auipc	ra,0x3
    266c:	558080e7          	jalr	1368(ra) # 5bc0 <printf>
    2670:	b7d1                	j	2634 <preempt+0xb2>
  close(pfds[1]);
    2672:	fcc42503          	lw	a0,-52(s0)
    2676:	00003097          	auipc	ra,0x3
    267a:	16e080e7          	jalr	366(ra) # 57e4 <close>
  if(read(pfds[0], buf, sizeof(buf)) != 1){
    267e:	660d                	lui	a2,0x3
    2680:	00009597          	auipc	a1,0x9
    2684:	26058593          	addi	a1,a1,608 # b8e0 <buf>
    2688:	fc842503          	lw	a0,-56(s0)
    268c:	00003097          	auipc	ra,0x3
    2690:	148080e7          	jalr	328(ra) # 57d4 <read>
    2694:	4785                	li	a5,1
    2696:	02f50363          	beq	a0,a5,26bc <preempt+0x13a>
    printf("%s: preempt read error", s);
    269a:	85ca                	mv	a1,s2
    269c:	00005517          	auipc	a0,0x5
    26a0:	81450513          	addi	a0,a0,-2028 # 6eb0 <malloc+0x1232>
    26a4:	00003097          	auipc	ra,0x3
    26a8:	51c080e7          	jalr	1308(ra) # 5bc0 <printf>
}
    26ac:	70e2                	ld	ra,56(sp)
    26ae:	7442                	ld	s0,48(sp)
    26b0:	74a2                	ld	s1,40(sp)
    26b2:	7902                	ld	s2,32(sp)
    26b4:	69e2                	ld	s3,24(sp)
    26b6:	6a42                	ld	s4,16(sp)
    26b8:	6121                	addi	sp,sp,64
    26ba:	8082                	ret
  close(pfds[0]);
    26bc:	fc842503          	lw	a0,-56(s0)
    26c0:	00003097          	auipc	ra,0x3
    26c4:	124080e7          	jalr	292(ra) # 57e4 <close>
  printf("kill... ");
    26c8:	00005517          	auipc	a0,0x5
    26cc:	80050513          	addi	a0,a0,-2048 # 6ec8 <malloc+0x124a>
    26d0:	00003097          	auipc	ra,0x3
    26d4:	4f0080e7          	jalr	1264(ra) # 5bc0 <printf>
  kill(pid1, SIGKILL);
    26d8:	45a5                	li	a1,9
    26da:	8526                	mv	a0,s1
    26dc:	00003097          	auipc	ra,0x3
    26e0:	110080e7          	jalr	272(ra) # 57ec <kill>
  kill(pid2, SIGKILL);
    26e4:	45a5                	li	a1,9
    26e6:	854e                	mv	a0,s3
    26e8:	00003097          	auipc	ra,0x3
    26ec:	104080e7          	jalr	260(ra) # 57ec <kill>
  kill(pid3, SIGKILL);
    26f0:	45a5                	li	a1,9
    26f2:	8552                	mv	a0,s4
    26f4:	00003097          	auipc	ra,0x3
    26f8:	0f8080e7          	jalr	248(ra) # 57ec <kill>
  printf("wait... ");
    26fc:	00004517          	auipc	a0,0x4
    2700:	7dc50513          	addi	a0,a0,2012 # 6ed8 <malloc+0x125a>
    2704:	00003097          	auipc	ra,0x3
    2708:	4bc080e7          	jalr	1212(ra) # 5bc0 <printf>
  wait(0);
    270c:	4501                	li	a0,0
    270e:	00003097          	auipc	ra,0x3
    2712:	0b6080e7          	jalr	182(ra) # 57c4 <wait>
  wait(0);
    2716:	4501                	li	a0,0
    2718:	00003097          	auipc	ra,0x3
    271c:	0ac080e7          	jalr	172(ra) # 57c4 <wait>
  wait(0);
    2720:	4501                	li	a0,0
    2722:	00003097          	auipc	ra,0x3
    2726:	0a2080e7          	jalr	162(ra) # 57c4 <wait>
    272a:	b749                	j	26ac <preempt+0x12a>

000000000000272c <reparent>:
{
    272c:	7179                	addi	sp,sp,-48
    272e:	f406                	sd	ra,40(sp)
    2730:	f022                	sd	s0,32(sp)
    2732:	ec26                	sd	s1,24(sp)
    2734:	e84a                	sd	s2,16(sp)
    2736:	e44e                	sd	s3,8(sp)
    2738:	e052                	sd	s4,0(sp)
    273a:	1800                	addi	s0,sp,48
    273c:	89aa                	mv	s3,a0
  int master_pid = getpid();
    273e:	00003097          	auipc	ra,0x3
    2742:	0fe080e7          	jalr	254(ra) # 583c <getpid>
    2746:	8a2a                	mv	s4,a0
    2748:	0c800913          	li	s2,200
    int pid = fork();
    274c:	00003097          	auipc	ra,0x3
    2750:	068080e7          	jalr	104(ra) # 57b4 <fork>
    2754:	84aa                	mv	s1,a0
    if(pid < 0){
    2756:	02054263          	bltz	a0,277a <reparent+0x4e>
    if(pid){
    275a:	cd21                	beqz	a0,27b2 <reparent+0x86>
      if(wait(0) != pid){
    275c:	4501                	li	a0,0
    275e:	00003097          	auipc	ra,0x3
    2762:	066080e7          	jalr	102(ra) # 57c4 <wait>
    2766:	02951863          	bne	a0,s1,2796 <reparent+0x6a>
  for(int i = 0; i < 200; i++){
    276a:	397d                	addiw	s2,s2,-1
    276c:	fe0910e3          	bnez	s2,274c <reparent+0x20>
  exit(0);
    2770:	4501                	li	a0,0
    2772:	00003097          	auipc	ra,0x3
    2776:	04a080e7          	jalr	74(ra) # 57bc <exit>
      printf("%s: fork failed\n", s);
    277a:	85ce                	mv	a1,s3
    277c:	00003517          	auipc	a0,0x3
    2780:	70450513          	addi	a0,a0,1796 # 5e80 <malloc+0x202>
    2784:	00003097          	auipc	ra,0x3
    2788:	43c080e7          	jalr	1084(ra) # 5bc0 <printf>
      exit(1);
    278c:	4505                	li	a0,1
    278e:	00003097          	auipc	ra,0x3
    2792:	02e080e7          	jalr	46(ra) # 57bc <exit>
        printf("%s: wait wrong pid\n", s);
    2796:	85ce                	mv	a1,s3
    2798:	00003517          	auipc	a0,0x3
    279c:	70050513          	addi	a0,a0,1792 # 5e98 <malloc+0x21a>
    27a0:	00003097          	auipc	ra,0x3
    27a4:	420080e7          	jalr	1056(ra) # 5bc0 <printf>
        exit(1);
    27a8:	4505                	li	a0,1
    27aa:	00003097          	auipc	ra,0x3
    27ae:	012080e7          	jalr	18(ra) # 57bc <exit>
      int pid2 = fork();
    27b2:	00003097          	auipc	ra,0x3
    27b6:	002080e7          	jalr	2(ra) # 57b4 <fork>
      if(pid2 < 0){
    27ba:	00054763          	bltz	a0,27c8 <reparent+0x9c>
      exit(0);
    27be:	4501                	li	a0,0
    27c0:	00003097          	auipc	ra,0x3
    27c4:	ffc080e7          	jalr	-4(ra) # 57bc <exit>
        kill(master_pid, SIGKILL);
    27c8:	45a5                	li	a1,9
    27ca:	8552                	mv	a0,s4
    27cc:	00003097          	auipc	ra,0x3
    27d0:	020080e7          	jalr	32(ra) # 57ec <kill>
        exit(1);
    27d4:	4505                	li	a0,1
    27d6:	00003097          	auipc	ra,0x3
    27da:	fe6080e7          	jalr	-26(ra) # 57bc <exit>

00000000000027de <twochildren>:
{
    27de:	1101                	addi	sp,sp,-32
    27e0:	ec06                	sd	ra,24(sp)
    27e2:	e822                	sd	s0,16(sp)
    27e4:	e426                	sd	s1,8(sp)
    27e6:	e04a                	sd	s2,0(sp)
    27e8:	1000                	addi	s0,sp,32
    27ea:	892a                	mv	s2,a0
    27ec:	3e800493          	li	s1,1000
    int pid1 = fork();
    27f0:	00003097          	auipc	ra,0x3
    27f4:	fc4080e7          	jalr	-60(ra) # 57b4 <fork>
    if(pid1 < 0){
    27f8:	02054c63          	bltz	a0,2830 <twochildren+0x52>
    if(pid1 == 0){
    27fc:	c921                	beqz	a0,284c <twochildren+0x6e>
      int pid2 = fork();
    27fe:	00003097          	auipc	ra,0x3
    2802:	fb6080e7          	jalr	-74(ra) # 57b4 <fork>
      if(pid2 < 0){
    2806:	04054763          	bltz	a0,2854 <twochildren+0x76>
      if(pid2 == 0){
    280a:	c13d                	beqz	a0,2870 <twochildren+0x92>
        wait(0);
    280c:	4501                	li	a0,0
    280e:	00003097          	auipc	ra,0x3
    2812:	fb6080e7          	jalr	-74(ra) # 57c4 <wait>
        wait(0);
    2816:	4501                	li	a0,0
    2818:	00003097          	auipc	ra,0x3
    281c:	fac080e7          	jalr	-84(ra) # 57c4 <wait>
  for(int i = 0; i < 1000; i++){
    2820:	34fd                	addiw	s1,s1,-1
    2822:	f4f9                	bnez	s1,27f0 <twochildren+0x12>
}
    2824:	60e2                	ld	ra,24(sp)
    2826:	6442                	ld	s0,16(sp)
    2828:	64a2                	ld	s1,8(sp)
    282a:	6902                	ld	s2,0(sp)
    282c:	6105                	addi	sp,sp,32
    282e:	8082                	ret
      printf("%s: fork failed\n", s);
    2830:	85ca                	mv	a1,s2
    2832:	00003517          	auipc	a0,0x3
    2836:	64e50513          	addi	a0,a0,1614 # 5e80 <malloc+0x202>
    283a:	00003097          	auipc	ra,0x3
    283e:	386080e7          	jalr	902(ra) # 5bc0 <printf>
      exit(1);
    2842:	4505                	li	a0,1
    2844:	00003097          	auipc	ra,0x3
    2848:	f78080e7          	jalr	-136(ra) # 57bc <exit>
      exit(0);
    284c:	00003097          	auipc	ra,0x3
    2850:	f70080e7          	jalr	-144(ra) # 57bc <exit>
        printf("%s: fork failed\n", s);
    2854:	85ca                	mv	a1,s2
    2856:	00003517          	auipc	a0,0x3
    285a:	62a50513          	addi	a0,a0,1578 # 5e80 <malloc+0x202>
    285e:	00003097          	auipc	ra,0x3
    2862:	362080e7          	jalr	866(ra) # 5bc0 <printf>
        exit(1);
    2866:	4505                	li	a0,1
    2868:	00003097          	auipc	ra,0x3
    286c:	f54080e7          	jalr	-172(ra) # 57bc <exit>
        exit(0);
    2870:	00003097          	auipc	ra,0x3
    2874:	f4c080e7          	jalr	-180(ra) # 57bc <exit>

0000000000002878 <forkfork>:
{
    2878:	7179                	addi	sp,sp,-48
    287a:	f406                	sd	ra,40(sp)
    287c:	f022                	sd	s0,32(sp)
    287e:	ec26                	sd	s1,24(sp)
    2880:	1800                	addi	s0,sp,48
    2882:	84aa                	mv	s1,a0
    int pid = fork();
    2884:	00003097          	auipc	ra,0x3
    2888:	f30080e7          	jalr	-208(ra) # 57b4 <fork>
    if(pid < 0){
    288c:	04054163          	bltz	a0,28ce <forkfork+0x56>
    if(pid == 0){
    2890:	cd29                	beqz	a0,28ea <forkfork+0x72>
    int pid = fork();
    2892:	00003097          	auipc	ra,0x3
    2896:	f22080e7          	jalr	-222(ra) # 57b4 <fork>
    if(pid < 0){
    289a:	02054a63          	bltz	a0,28ce <forkfork+0x56>
    if(pid == 0){
    289e:	c531                	beqz	a0,28ea <forkfork+0x72>
    wait(&xstatus);
    28a0:	fdc40513          	addi	a0,s0,-36
    28a4:	00003097          	auipc	ra,0x3
    28a8:	f20080e7          	jalr	-224(ra) # 57c4 <wait>
    if(xstatus != 0) {
    28ac:	fdc42783          	lw	a5,-36(s0)
    28b0:	ebbd                	bnez	a5,2926 <forkfork+0xae>
    wait(&xstatus);
    28b2:	fdc40513          	addi	a0,s0,-36
    28b6:	00003097          	auipc	ra,0x3
    28ba:	f0e080e7          	jalr	-242(ra) # 57c4 <wait>
    if(xstatus != 0) {
    28be:	fdc42783          	lw	a5,-36(s0)
    28c2:	e3b5                	bnez	a5,2926 <forkfork+0xae>
}
    28c4:	70a2                	ld	ra,40(sp)
    28c6:	7402                	ld	s0,32(sp)
    28c8:	64e2                	ld	s1,24(sp)
    28ca:	6145                	addi	sp,sp,48
    28cc:	8082                	ret
      printf("%s: fork failed", s);
    28ce:	85a6                	mv	a1,s1
    28d0:	00004517          	auipc	a0,0x4
    28d4:	5b850513          	addi	a0,a0,1464 # 6e88 <malloc+0x120a>
    28d8:	00003097          	auipc	ra,0x3
    28dc:	2e8080e7          	jalr	744(ra) # 5bc0 <printf>
      exit(1);
    28e0:	4505                	li	a0,1
    28e2:	00003097          	auipc	ra,0x3
    28e6:	eda080e7          	jalr	-294(ra) # 57bc <exit>
{
    28ea:	0c800493          	li	s1,200
        int pid1 = fork();
    28ee:	00003097          	auipc	ra,0x3
    28f2:	ec6080e7          	jalr	-314(ra) # 57b4 <fork>
        if(pid1 < 0){
    28f6:	00054f63          	bltz	a0,2914 <forkfork+0x9c>
        if(pid1 == 0){
    28fa:	c115                	beqz	a0,291e <forkfork+0xa6>
        wait(0);
    28fc:	4501                	li	a0,0
    28fe:	00003097          	auipc	ra,0x3
    2902:	ec6080e7          	jalr	-314(ra) # 57c4 <wait>
      for(int j = 0; j < 200; j++){
    2906:	34fd                	addiw	s1,s1,-1
    2908:	f0fd                	bnez	s1,28ee <forkfork+0x76>
      exit(0);
    290a:	4501                	li	a0,0
    290c:	00003097          	auipc	ra,0x3
    2910:	eb0080e7          	jalr	-336(ra) # 57bc <exit>
          exit(1);
    2914:	4505                	li	a0,1
    2916:	00003097          	auipc	ra,0x3
    291a:	ea6080e7          	jalr	-346(ra) # 57bc <exit>
          exit(0);
    291e:	00003097          	auipc	ra,0x3
    2922:	e9e080e7          	jalr	-354(ra) # 57bc <exit>
      printf("%s: fork in child failed", s);
    2926:	85a6                	mv	a1,s1
    2928:	00004517          	auipc	a0,0x4
    292c:	5c050513          	addi	a0,a0,1472 # 6ee8 <malloc+0x126a>
    2930:	00003097          	auipc	ra,0x3
    2934:	290080e7          	jalr	656(ra) # 5bc0 <printf>
      exit(1);
    2938:	4505                	li	a0,1
    293a:	00003097          	auipc	ra,0x3
    293e:	e82080e7          	jalr	-382(ra) # 57bc <exit>

0000000000002942 <forkforkfork>:
{
    2942:	1101                	addi	sp,sp,-32
    2944:	ec06                	sd	ra,24(sp)
    2946:	e822                	sd	s0,16(sp)
    2948:	e426                	sd	s1,8(sp)
    294a:	1000                	addi	s0,sp,32
    294c:	84aa                	mv	s1,a0
  unlink("stopforking");
    294e:	00004517          	auipc	a0,0x4
    2952:	5ba50513          	addi	a0,a0,1466 # 6f08 <malloc+0x128a>
    2956:	00003097          	auipc	ra,0x3
    295a:	eb6080e7          	jalr	-330(ra) # 580c <unlink>
  int pid = fork();
    295e:	00003097          	auipc	ra,0x3
    2962:	e56080e7          	jalr	-426(ra) # 57b4 <fork>
  if(pid < 0){
    2966:	04054563          	bltz	a0,29b0 <forkforkfork+0x6e>
  if(pid == 0){
    296a:	c12d                	beqz	a0,29cc <forkforkfork+0x8a>
  sleep(20); // two seconds
    296c:	4551                	li	a0,20
    296e:	00003097          	auipc	ra,0x3
    2972:	ede080e7          	jalr	-290(ra) # 584c <sleep>
  close(open("stopforking", O_CREATE|O_RDWR));
    2976:	20200593          	li	a1,514
    297a:	00004517          	auipc	a0,0x4
    297e:	58e50513          	addi	a0,a0,1422 # 6f08 <malloc+0x128a>
    2982:	00003097          	auipc	ra,0x3
    2986:	e7a080e7          	jalr	-390(ra) # 57fc <open>
    298a:	00003097          	auipc	ra,0x3
    298e:	e5a080e7          	jalr	-422(ra) # 57e4 <close>
  wait(0);
    2992:	4501                	li	a0,0
    2994:	00003097          	auipc	ra,0x3
    2998:	e30080e7          	jalr	-464(ra) # 57c4 <wait>
  sleep(10); // one second
    299c:	4529                	li	a0,10
    299e:	00003097          	auipc	ra,0x3
    29a2:	eae080e7          	jalr	-338(ra) # 584c <sleep>
}
    29a6:	60e2                	ld	ra,24(sp)
    29a8:	6442                	ld	s0,16(sp)
    29aa:	64a2                	ld	s1,8(sp)
    29ac:	6105                	addi	sp,sp,32
    29ae:	8082                	ret
    printf("%s: fork failed", s);
    29b0:	85a6                	mv	a1,s1
    29b2:	00004517          	auipc	a0,0x4
    29b6:	4d650513          	addi	a0,a0,1238 # 6e88 <malloc+0x120a>
    29ba:	00003097          	auipc	ra,0x3
    29be:	206080e7          	jalr	518(ra) # 5bc0 <printf>
    exit(1);
    29c2:	4505                	li	a0,1
    29c4:	00003097          	auipc	ra,0x3
    29c8:	df8080e7          	jalr	-520(ra) # 57bc <exit>
      int fd = open("stopforking", 0);
    29cc:	00004497          	auipc	s1,0x4
    29d0:	53c48493          	addi	s1,s1,1340 # 6f08 <malloc+0x128a>
    29d4:	4581                	li	a1,0
    29d6:	8526                	mv	a0,s1
    29d8:	00003097          	auipc	ra,0x3
    29dc:	e24080e7          	jalr	-476(ra) # 57fc <open>
      if(fd >= 0){
    29e0:	02055463          	bgez	a0,2a08 <forkforkfork+0xc6>
      if(fork() < 0){
    29e4:	00003097          	auipc	ra,0x3
    29e8:	dd0080e7          	jalr	-560(ra) # 57b4 <fork>
    29ec:	fe0554e3          	bgez	a0,29d4 <forkforkfork+0x92>
        close(open("stopforking", O_CREATE|O_RDWR));
    29f0:	20200593          	li	a1,514
    29f4:	8526                	mv	a0,s1
    29f6:	00003097          	auipc	ra,0x3
    29fa:	e06080e7          	jalr	-506(ra) # 57fc <open>
    29fe:	00003097          	auipc	ra,0x3
    2a02:	de6080e7          	jalr	-538(ra) # 57e4 <close>
    2a06:	b7f9                	j	29d4 <forkforkfork+0x92>
        exit(0);
    2a08:	4501                	li	a0,0
    2a0a:	00003097          	auipc	ra,0x3
    2a0e:	db2080e7          	jalr	-590(ra) # 57bc <exit>

0000000000002a12 <reparent2>:
{
    2a12:	1101                	addi	sp,sp,-32
    2a14:	ec06                	sd	ra,24(sp)
    2a16:	e822                	sd	s0,16(sp)
    2a18:	e426                	sd	s1,8(sp)
    2a1a:	1000                	addi	s0,sp,32
    2a1c:	32000493          	li	s1,800
    int pid1 = fork();
    2a20:	00003097          	auipc	ra,0x3
    2a24:	d94080e7          	jalr	-620(ra) # 57b4 <fork>
    if(pid1 < 0){
    2a28:	00054f63          	bltz	a0,2a46 <reparent2+0x34>
    if(pid1 == 0){
    2a2c:	c915                	beqz	a0,2a60 <reparent2+0x4e>
    wait(0);
    2a2e:	4501                	li	a0,0
    2a30:	00003097          	auipc	ra,0x3
    2a34:	d94080e7          	jalr	-620(ra) # 57c4 <wait>
  for(int i = 0; i < 800; i++){
    2a38:	34fd                	addiw	s1,s1,-1
    2a3a:	f0fd                	bnez	s1,2a20 <reparent2+0xe>
  exit(0);
    2a3c:	4501                	li	a0,0
    2a3e:	00003097          	auipc	ra,0x3
    2a42:	d7e080e7          	jalr	-642(ra) # 57bc <exit>
      printf("fork failed\n");
    2a46:	00005517          	auipc	a0,0x5
    2a4a:	26250513          	addi	a0,a0,610 # 7ca8 <malloc+0x202a>
    2a4e:	00003097          	auipc	ra,0x3
    2a52:	172080e7          	jalr	370(ra) # 5bc0 <printf>
      exit(1);
    2a56:	4505                	li	a0,1
    2a58:	00003097          	auipc	ra,0x3
    2a5c:	d64080e7          	jalr	-668(ra) # 57bc <exit>
      fork();
    2a60:	00003097          	auipc	ra,0x3
    2a64:	d54080e7          	jalr	-684(ra) # 57b4 <fork>
      fork();
    2a68:	00003097          	auipc	ra,0x3
    2a6c:	d4c080e7          	jalr	-692(ra) # 57b4 <fork>
      exit(0);
    2a70:	4501                	li	a0,0
    2a72:	00003097          	auipc	ra,0x3
    2a76:	d4a080e7          	jalr	-694(ra) # 57bc <exit>

0000000000002a7a <sharedfd>:
{
    2a7a:	7159                	addi	sp,sp,-112
    2a7c:	f486                	sd	ra,104(sp)
    2a7e:	f0a2                	sd	s0,96(sp)
    2a80:	eca6                	sd	s1,88(sp)
    2a82:	e8ca                	sd	s2,80(sp)
    2a84:	e4ce                	sd	s3,72(sp)
    2a86:	e0d2                	sd	s4,64(sp)
    2a88:	fc56                	sd	s5,56(sp)
    2a8a:	f85a                	sd	s6,48(sp)
    2a8c:	f45e                	sd	s7,40(sp)
    2a8e:	1880                	addi	s0,sp,112
    2a90:	8a2a                	mv	s4,a0
  unlink("sharedfd");
    2a92:	00004517          	auipc	a0,0x4
    2a96:	48650513          	addi	a0,a0,1158 # 6f18 <malloc+0x129a>
    2a9a:	00003097          	auipc	ra,0x3
    2a9e:	d72080e7          	jalr	-654(ra) # 580c <unlink>
  fd = open("sharedfd", O_CREATE|O_RDWR);
    2aa2:	20200593          	li	a1,514
    2aa6:	00004517          	auipc	a0,0x4
    2aaa:	47250513          	addi	a0,a0,1138 # 6f18 <malloc+0x129a>
    2aae:	00003097          	auipc	ra,0x3
    2ab2:	d4e080e7          	jalr	-690(ra) # 57fc <open>
  if(fd < 0){
    2ab6:	04054a63          	bltz	a0,2b0a <sharedfd+0x90>
    2aba:	892a                	mv	s2,a0
  pid = fork();
    2abc:	00003097          	auipc	ra,0x3
    2ac0:	cf8080e7          	jalr	-776(ra) # 57b4 <fork>
    2ac4:	89aa                	mv	s3,a0
  memset(buf, pid==0?'c':'p', sizeof(buf));
    2ac6:	06300593          	li	a1,99
    2aca:	c119                	beqz	a0,2ad0 <sharedfd+0x56>
    2acc:	07000593          	li	a1,112
    2ad0:	4629                	li	a2,10
    2ad2:	fa040513          	addi	a0,s0,-96
    2ad6:	00003097          	auipc	ra,0x3
    2ada:	aea080e7          	jalr	-1302(ra) # 55c0 <memset>
    2ade:	3e800493          	li	s1,1000
    if(write(fd, buf, sizeof(buf)) != sizeof(buf)){
    2ae2:	4629                	li	a2,10
    2ae4:	fa040593          	addi	a1,s0,-96
    2ae8:	854a                	mv	a0,s2
    2aea:	00003097          	auipc	ra,0x3
    2aee:	cf2080e7          	jalr	-782(ra) # 57dc <write>
    2af2:	47a9                	li	a5,10
    2af4:	02f51963          	bne	a0,a5,2b26 <sharedfd+0xac>
  for(i = 0; i < N; i++){
    2af8:	34fd                	addiw	s1,s1,-1
    2afa:	f4e5                	bnez	s1,2ae2 <sharedfd+0x68>
  if(pid == 0) {
    2afc:	04099363          	bnez	s3,2b42 <sharedfd+0xc8>
    exit(0);
    2b00:	4501                	li	a0,0
    2b02:	00003097          	auipc	ra,0x3
    2b06:	cba080e7          	jalr	-838(ra) # 57bc <exit>
    printf("%s: cannot open sharedfd for writing", s);
    2b0a:	85d2                	mv	a1,s4
    2b0c:	00004517          	auipc	a0,0x4
    2b10:	41c50513          	addi	a0,a0,1052 # 6f28 <malloc+0x12aa>
    2b14:	00003097          	auipc	ra,0x3
    2b18:	0ac080e7          	jalr	172(ra) # 5bc0 <printf>
    exit(1);
    2b1c:	4505                	li	a0,1
    2b1e:	00003097          	auipc	ra,0x3
    2b22:	c9e080e7          	jalr	-866(ra) # 57bc <exit>
      printf("%s: write sharedfd failed\n", s);
    2b26:	85d2                	mv	a1,s4
    2b28:	00004517          	auipc	a0,0x4
    2b2c:	42850513          	addi	a0,a0,1064 # 6f50 <malloc+0x12d2>
    2b30:	00003097          	auipc	ra,0x3
    2b34:	090080e7          	jalr	144(ra) # 5bc0 <printf>
      exit(1);
    2b38:	4505                	li	a0,1
    2b3a:	00003097          	auipc	ra,0x3
    2b3e:	c82080e7          	jalr	-894(ra) # 57bc <exit>
    wait(&xstatus);
    2b42:	f9c40513          	addi	a0,s0,-100
    2b46:	00003097          	auipc	ra,0x3
    2b4a:	c7e080e7          	jalr	-898(ra) # 57c4 <wait>
    if(xstatus != 0)
    2b4e:	f9c42983          	lw	s3,-100(s0)
    2b52:	00098763          	beqz	s3,2b60 <sharedfd+0xe6>
      exit(xstatus);
    2b56:	854e                	mv	a0,s3
    2b58:	00003097          	auipc	ra,0x3
    2b5c:	c64080e7          	jalr	-924(ra) # 57bc <exit>
  close(fd);
    2b60:	854a                	mv	a0,s2
    2b62:	00003097          	auipc	ra,0x3
    2b66:	c82080e7          	jalr	-894(ra) # 57e4 <close>
  fd = open("sharedfd", 0);
    2b6a:	4581                	li	a1,0
    2b6c:	00004517          	auipc	a0,0x4
    2b70:	3ac50513          	addi	a0,a0,940 # 6f18 <malloc+0x129a>
    2b74:	00003097          	auipc	ra,0x3
    2b78:	c88080e7          	jalr	-888(ra) # 57fc <open>
    2b7c:	8baa                	mv	s7,a0
  nc = np = 0;
    2b7e:	8ace                	mv	s5,s3
  if(fd < 0){
    2b80:	02054563          	bltz	a0,2baa <sharedfd+0x130>
    2b84:	faa40913          	addi	s2,s0,-86
      if(buf[i] == 'c')
    2b88:	06300493          	li	s1,99
      if(buf[i] == 'p')
    2b8c:	07000b13          	li	s6,112
  while((n = read(fd, buf, sizeof(buf))) > 0){
    2b90:	4629                	li	a2,10
    2b92:	fa040593          	addi	a1,s0,-96
    2b96:	855e                	mv	a0,s7
    2b98:	00003097          	auipc	ra,0x3
    2b9c:	c3c080e7          	jalr	-964(ra) # 57d4 <read>
    2ba0:	02a05f63          	blez	a0,2bde <sharedfd+0x164>
    2ba4:	fa040793          	addi	a5,s0,-96
    2ba8:	a01d                	j	2bce <sharedfd+0x154>
    printf("%s: cannot open sharedfd for reading\n", s);
    2baa:	85d2                	mv	a1,s4
    2bac:	00004517          	auipc	a0,0x4
    2bb0:	3c450513          	addi	a0,a0,964 # 6f70 <malloc+0x12f2>
    2bb4:	00003097          	auipc	ra,0x3
    2bb8:	00c080e7          	jalr	12(ra) # 5bc0 <printf>
    exit(1);
    2bbc:	4505                	li	a0,1
    2bbe:	00003097          	auipc	ra,0x3
    2bc2:	bfe080e7          	jalr	-1026(ra) # 57bc <exit>
        nc++;
    2bc6:	2985                	addiw	s3,s3,1
    for(i = 0; i < sizeof(buf); i++){
    2bc8:	0785                	addi	a5,a5,1
    2bca:	fd2783e3          	beq	a5,s2,2b90 <sharedfd+0x116>
      if(buf[i] == 'c')
    2bce:	0007c703          	lbu	a4,0(a5)
    2bd2:	fe970ae3          	beq	a4,s1,2bc6 <sharedfd+0x14c>
      if(buf[i] == 'p')
    2bd6:	ff6719e3          	bne	a4,s6,2bc8 <sharedfd+0x14e>
        np++;
    2bda:	2a85                	addiw	s5,s5,1
    2bdc:	b7f5                	j	2bc8 <sharedfd+0x14e>
  close(fd);
    2bde:	855e                	mv	a0,s7
    2be0:	00003097          	auipc	ra,0x3
    2be4:	c04080e7          	jalr	-1020(ra) # 57e4 <close>
  unlink("sharedfd");
    2be8:	00004517          	auipc	a0,0x4
    2bec:	33050513          	addi	a0,a0,816 # 6f18 <malloc+0x129a>
    2bf0:	00003097          	auipc	ra,0x3
    2bf4:	c1c080e7          	jalr	-996(ra) # 580c <unlink>
  if(nc == N*SZ && np == N*SZ){
    2bf8:	6789                	lui	a5,0x2
    2bfa:	71078793          	addi	a5,a5,1808 # 2710 <preempt+0x18e>
    2bfe:	00f99763          	bne	s3,a5,2c0c <sharedfd+0x192>
    2c02:	6789                	lui	a5,0x2
    2c04:	71078793          	addi	a5,a5,1808 # 2710 <preempt+0x18e>
    2c08:	02fa8063          	beq	s5,a5,2c28 <sharedfd+0x1ae>
    printf("%s: nc/np test fails\n", s);
    2c0c:	85d2                	mv	a1,s4
    2c0e:	00004517          	auipc	a0,0x4
    2c12:	38a50513          	addi	a0,a0,906 # 6f98 <malloc+0x131a>
    2c16:	00003097          	auipc	ra,0x3
    2c1a:	faa080e7          	jalr	-86(ra) # 5bc0 <printf>
    exit(1);
    2c1e:	4505                	li	a0,1
    2c20:	00003097          	auipc	ra,0x3
    2c24:	b9c080e7          	jalr	-1124(ra) # 57bc <exit>
    exit(0);
    2c28:	4501                	li	a0,0
    2c2a:	00003097          	auipc	ra,0x3
    2c2e:	b92080e7          	jalr	-1134(ra) # 57bc <exit>

0000000000002c32 <fourfiles>:
{
    2c32:	7171                	addi	sp,sp,-176
    2c34:	f506                	sd	ra,168(sp)
    2c36:	f122                	sd	s0,160(sp)
    2c38:	ed26                	sd	s1,152(sp)
    2c3a:	e94a                	sd	s2,144(sp)
    2c3c:	e54e                	sd	s3,136(sp)
    2c3e:	e152                	sd	s4,128(sp)
    2c40:	fcd6                	sd	s5,120(sp)
    2c42:	f8da                	sd	s6,112(sp)
    2c44:	f4de                	sd	s7,104(sp)
    2c46:	f0e2                	sd	s8,96(sp)
    2c48:	ece6                	sd	s9,88(sp)
    2c4a:	e8ea                	sd	s10,80(sp)
    2c4c:	e4ee                	sd	s11,72(sp)
    2c4e:	1900                	addi	s0,sp,176
    2c50:	f4a43c23          	sd	a0,-168(s0)
  char *names[] = { "f0", "f1", "f2", "f3" };
    2c54:	00003797          	auipc	a5,0x3
    2c58:	11478793          	addi	a5,a5,276 # 5d68 <malloc+0xea>
    2c5c:	f6f43823          	sd	a5,-144(s0)
    2c60:	00003797          	auipc	a5,0x3
    2c64:	11078793          	addi	a5,a5,272 # 5d70 <malloc+0xf2>
    2c68:	f6f43c23          	sd	a5,-136(s0)
    2c6c:	00003797          	auipc	a5,0x3
    2c70:	10c78793          	addi	a5,a5,268 # 5d78 <malloc+0xfa>
    2c74:	f8f43023          	sd	a5,-128(s0)
    2c78:	00003797          	auipc	a5,0x3
    2c7c:	10878793          	addi	a5,a5,264 # 5d80 <malloc+0x102>
    2c80:	f8f43423          	sd	a5,-120(s0)
  for(pi = 0; pi < NCHILD; pi++){
    2c84:	f7040c13          	addi	s8,s0,-144
  char *names[] = { "f0", "f1", "f2", "f3" };
    2c88:	8962                	mv	s2,s8
  for(pi = 0; pi < NCHILD; pi++){
    2c8a:	4481                	li	s1,0
    2c8c:	4a11                	li	s4,4
    fname = names[pi];
    2c8e:	00093983          	ld	s3,0(s2)
    unlink(fname);
    2c92:	854e                	mv	a0,s3
    2c94:	00003097          	auipc	ra,0x3
    2c98:	b78080e7          	jalr	-1160(ra) # 580c <unlink>
    pid = fork();
    2c9c:	00003097          	auipc	ra,0x3
    2ca0:	b18080e7          	jalr	-1256(ra) # 57b4 <fork>
    if(pid < 0){
    2ca4:	04054463          	bltz	a0,2cec <fourfiles+0xba>
    if(pid == 0){
    2ca8:	c12d                	beqz	a0,2d0a <fourfiles+0xd8>
  for(pi = 0; pi < NCHILD; pi++){
    2caa:	2485                	addiw	s1,s1,1
    2cac:	0921                	addi	s2,s2,8
    2cae:	ff4490e3          	bne	s1,s4,2c8e <fourfiles+0x5c>
    2cb2:	4491                	li	s1,4
    wait(&xstatus);
    2cb4:	f6c40513          	addi	a0,s0,-148
    2cb8:	00003097          	auipc	ra,0x3
    2cbc:	b0c080e7          	jalr	-1268(ra) # 57c4 <wait>
    if(xstatus != 0)
    2cc0:	f6c42b03          	lw	s6,-148(s0)
    2cc4:	0c0b1e63          	bnez	s6,2da0 <fourfiles+0x16e>
  for(pi = 0; pi < NCHILD; pi++){
    2cc8:	34fd                	addiw	s1,s1,-1
    2cca:	f4ed                	bnez	s1,2cb4 <fourfiles+0x82>
    2ccc:	03000b93          	li	s7,48
    while((n = read(fd, buf, sizeof(buf))) > 0){
    2cd0:	00009a17          	auipc	s4,0x9
    2cd4:	c10a0a13          	addi	s4,s4,-1008 # b8e0 <buf>
    2cd8:	00009a97          	auipc	s5,0x9
    2cdc:	c09a8a93          	addi	s5,s5,-1015 # b8e1 <buf+0x1>
    if(total != N*SZ){
    2ce0:	6d85                	lui	s11,0x1
    2ce2:	770d8d93          	addi	s11,s11,1904 # 1770 <copyin+0xe0>
  for(i = 0; i < NCHILD; i++){
    2ce6:	03400d13          	li	s10,52
    2cea:	aa1d                	j	2e20 <fourfiles+0x1ee>
      printf("fork failed\n", s);
    2cec:	f5843583          	ld	a1,-168(s0)
    2cf0:	00005517          	auipc	a0,0x5
    2cf4:	fb850513          	addi	a0,a0,-72 # 7ca8 <malloc+0x202a>
    2cf8:	00003097          	auipc	ra,0x3
    2cfc:	ec8080e7          	jalr	-312(ra) # 5bc0 <printf>
      exit(1);
    2d00:	4505                	li	a0,1
    2d02:	00003097          	auipc	ra,0x3
    2d06:	aba080e7          	jalr	-1350(ra) # 57bc <exit>
      fd = open(fname, O_CREATE | O_RDWR);
    2d0a:	20200593          	li	a1,514
    2d0e:	854e                	mv	a0,s3
    2d10:	00003097          	auipc	ra,0x3
    2d14:	aec080e7          	jalr	-1300(ra) # 57fc <open>
    2d18:	892a                	mv	s2,a0
      if(fd < 0){
    2d1a:	04054763          	bltz	a0,2d68 <fourfiles+0x136>
      memset(buf, '0'+pi, SZ);
    2d1e:	1f400613          	li	a2,500
    2d22:	0304859b          	addiw	a1,s1,48
    2d26:	00009517          	auipc	a0,0x9
    2d2a:	bba50513          	addi	a0,a0,-1094 # b8e0 <buf>
    2d2e:	00003097          	auipc	ra,0x3
    2d32:	892080e7          	jalr	-1902(ra) # 55c0 <memset>
    2d36:	44b1                	li	s1,12
        if((n = write(fd, buf, SZ)) != SZ){
    2d38:	00009997          	auipc	s3,0x9
    2d3c:	ba898993          	addi	s3,s3,-1112 # b8e0 <buf>
    2d40:	1f400613          	li	a2,500
    2d44:	85ce                	mv	a1,s3
    2d46:	854a                	mv	a0,s2
    2d48:	00003097          	auipc	ra,0x3
    2d4c:	a94080e7          	jalr	-1388(ra) # 57dc <write>
    2d50:	85aa                	mv	a1,a0
    2d52:	1f400793          	li	a5,500
    2d56:	02f51863          	bne	a0,a5,2d86 <fourfiles+0x154>
      for(i = 0; i < N; i++){
    2d5a:	34fd                	addiw	s1,s1,-1
    2d5c:	f0f5                	bnez	s1,2d40 <fourfiles+0x10e>
      exit(0);
    2d5e:	4501                	li	a0,0
    2d60:	00003097          	auipc	ra,0x3
    2d64:	a5c080e7          	jalr	-1444(ra) # 57bc <exit>
        printf("create failed\n", s);
    2d68:	f5843583          	ld	a1,-168(s0)
    2d6c:	00004517          	auipc	a0,0x4
    2d70:	24450513          	addi	a0,a0,580 # 6fb0 <malloc+0x1332>
    2d74:	00003097          	auipc	ra,0x3
    2d78:	e4c080e7          	jalr	-436(ra) # 5bc0 <printf>
        exit(1);
    2d7c:	4505                	li	a0,1
    2d7e:	00003097          	auipc	ra,0x3
    2d82:	a3e080e7          	jalr	-1474(ra) # 57bc <exit>
          printf("write failed %d\n", n);
    2d86:	00004517          	auipc	a0,0x4
    2d8a:	23a50513          	addi	a0,a0,570 # 6fc0 <malloc+0x1342>
    2d8e:	00003097          	auipc	ra,0x3
    2d92:	e32080e7          	jalr	-462(ra) # 5bc0 <printf>
          exit(1);
    2d96:	4505                	li	a0,1
    2d98:	00003097          	auipc	ra,0x3
    2d9c:	a24080e7          	jalr	-1500(ra) # 57bc <exit>
      exit(xstatus);
    2da0:	855a                	mv	a0,s6
    2da2:	00003097          	auipc	ra,0x3
    2da6:	a1a080e7          	jalr	-1510(ra) # 57bc <exit>
          printf("wrong char\n", s);
    2daa:	f5843583          	ld	a1,-168(s0)
    2dae:	00004517          	auipc	a0,0x4
    2db2:	22a50513          	addi	a0,a0,554 # 6fd8 <malloc+0x135a>
    2db6:	00003097          	auipc	ra,0x3
    2dba:	e0a080e7          	jalr	-502(ra) # 5bc0 <printf>
          exit(1);
    2dbe:	4505                	li	a0,1
    2dc0:	00003097          	auipc	ra,0x3
    2dc4:	9fc080e7          	jalr	-1540(ra) # 57bc <exit>
      total += n;
    2dc8:	00a9093b          	addw	s2,s2,a0
    while((n = read(fd, buf, sizeof(buf))) > 0){
    2dcc:	660d                	lui	a2,0x3
    2dce:	85d2                	mv	a1,s4
    2dd0:	854e                	mv	a0,s3
    2dd2:	00003097          	auipc	ra,0x3
    2dd6:	a02080e7          	jalr	-1534(ra) # 57d4 <read>
    2dda:	02a05363          	blez	a0,2e00 <fourfiles+0x1ce>
    2dde:	00009797          	auipc	a5,0x9
    2de2:	b0278793          	addi	a5,a5,-1278 # b8e0 <buf>
    2de6:	fff5069b          	addiw	a3,a0,-1
    2dea:	1682                	slli	a3,a3,0x20
    2dec:	9281                	srli	a3,a3,0x20
    2dee:	96d6                	add	a3,a3,s5
        if(buf[j] != '0'+i){
    2df0:	0007c703          	lbu	a4,0(a5)
    2df4:	fa971be3          	bne	a4,s1,2daa <fourfiles+0x178>
      for(j = 0; j < n; j++){
    2df8:	0785                	addi	a5,a5,1
    2dfa:	fed79be3          	bne	a5,a3,2df0 <fourfiles+0x1be>
    2dfe:	b7e9                	j	2dc8 <fourfiles+0x196>
    close(fd);
    2e00:	854e                	mv	a0,s3
    2e02:	00003097          	auipc	ra,0x3
    2e06:	9e2080e7          	jalr	-1566(ra) # 57e4 <close>
    if(total != N*SZ){
    2e0a:	03b91863          	bne	s2,s11,2e3a <fourfiles+0x208>
    unlink(fname);
    2e0e:	8566                	mv	a0,s9
    2e10:	00003097          	auipc	ra,0x3
    2e14:	9fc080e7          	jalr	-1540(ra) # 580c <unlink>
  for(i = 0; i < NCHILD; i++){
    2e18:	0c21                	addi	s8,s8,8
    2e1a:	2b85                	addiw	s7,s7,1
    2e1c:	03ab8d63          	beq	s7,s10,2e56 <fourfiles+0x224>
    fname = names[i];
    2e20:	000c3c83          	ld	s9,0(s8)
    fd = open(fname, 0);
    2e24:	4581                	li	a1,0
    2e26:	8566                	mv	a0,s9
    2e28:	00003097          	auipc	ra,0x3
    2e2c:	9d4080e7          	jalr	-1580(ra) # 57fc <open>
    2e30:	89aa                	mv	s3,a0
    total = 0;
    2e32:	895a                	mv	s2,s6
        if(buf[j] != '0'+i){
    2e34:	000b849b          	sext.w	s1,s7
    while((n = read(fd, buf, sizeof(buf))) > 0){
    2e38:	bf51                	j	2dcc <fourfiles+0x19a>
      printf("wrong length %d\n", total);
    2e3a:	85ca                	mv	a1,s2
    2e3c:	00004517          	auipc	a0,0x4
    2e40:	1ac50513          	addi	a0,a0,428 # 6fe8 <malloc+0x136a>
    2e44:	00003097          	auipc	ra,0x3
    2e48:	d7c080e7          	jalr	-644(ra) # 5bc0 <printf>
      exit(1);
    2e4c:	4505                	li	a0,1
    2e4e:	00003097          	auipc	ra,0x3
    2e52:	96e080e7          	jalr	-1682(ra) # 57bc <exit>
}
    2e56:	70aa                	ld	ra,168(sp)
    2e58:	740a                	ld	s0,160(sp)
    2e5a:	64ea                	ld	s1,152(sp)
    2e5c:	694a                	ld	s2,144(sp)
    2e5e:	69aa                	ld	s3,136(sp)
    2e60:	6a0a                	ld	s4,128(sp)
    2e62:	7ae6                	ld	s5,120(sp)
    2e64:	7b46                	ld	s6,112(sp)
    2e66:	7ba6                	ld	s7,104(sp)
    2e68:	7c06                	ld	s8,96(sp)
    2e6a:	6ce6                	ld	s9,88(sp)
    2e6c:	6d46                	ld	s10,80(sp)
    2e6e:	6da6                	ld	s11,72(sp)
    2e70:	614d                	addi	sp,sp,176
    2e72:	8082                	ret

0000000000002e74 <createdelete>:
{
    2e74:	7175                	addi	sp,sp,-144
    2e76:	e506                	sd	ra,136(sp)
    2e78:	e122                	sd	s0,128(sp)
    2e7a:	fca6                	sd	s1,120(sp)
    2e7c:	f8ca                	sd	s2,112(sp)
    2e7e:	f4ce                	sd	s3,104(sp)
    2e80:	f0d2                	sd	s4,96(sp)
    2e82:	ecd6                	sd	s5,88(sp)
    2e84:	e8da                	sd	s6,80(sp)
    2e86:	e4de                	sd	s7,72(sp)
    2e88:	e0e2                	sd	s8,64(sp)
    2e8a:	fc66                	sd	s9,56(sp)
    2e8c:	0900                	addi	s0,sp,144
    2e8e:	8caa                	mv	s9,a0
  for(pi = 0; pi < NCHILD; pi++){
    2e90:	4901                	li	s2,0
    2e92:	4991                	li	s3,4
    pid = fork();
    2e94:	00003097          	auipc	ra,0x3
    2e98:	920080e7          	jalr	-1760(ra) # 57b4 <fork>
    2e9c:	84aa                	mv	s1,a0
    if(pid < 0){
    2e9e:	02054f63          	bltz	a0,2edc <createdelete+0x68>
    if(pid == 0){
    2ea2:	c939                	beqz	a0,2ef8 <createdelete+0x84>
  for(pi = 0; pi < NCHILD; pi++){
    2ea4:	2905                	addiw	s2,s2,1
    2ea6:	ff3917e3          	bne	s2,s3,2e94 <createdelete+0x20>
    2eaa:	4491                	li	s1,4
    wait(&xstatus);
    2eac:	f7c40513          	addi	a0,s0,-132
    2eb0:	00003097          	auipc	ra,0x3
    2eb4:	914080e7          	jalr	-1772(ra) # 57c4 <wait>
    if(xstatus != 0)
    2eb8:	f7c42903          	lw	s2,-132(s0)
    2ebc:	0e091263          	bnez	s2,2fa0 <createdelete+0x12c>
  for(pi = 0; pi < NCHILD; pi++){
    2ec0:	34fd                	addiw	s1,s1,-1
    2ec2:	f4ed                	bnez	s1,2eac <createdelete+0x38>
  name[0] = name[1] = name[2] = 0;
    2ec4:	f8040123          	sb	zero,-126(s0)
    2ec8:	03000993          	li	s3,48
    2ecc:	5a7d                	li	s4,-1
    2ece:	07000c13          	li	s8,112
      } else if((i >= 1 && i < N/2) && fd >= 0){
    2ed2:	4b21                	li	s6,8
      if((i == 0 || i >= N/2) && fd < 0){
    2ed4:	4ba5                	li	s7,9
    for(pi = 0; pi < NCHILD; pi++){
    2ed6:	07400a93          	li	s5,116
    2eda:	a29d                	j	3040 <createdelete+0x1cc>
      printf("fork failed\n", s);
    2edc:	85e6                	mv	a1,s9
    2ede:	00005517          	auipc	a0,0x5
    2ee2:	dca50513          	addi	a0,a0,-566 # 7ca8 <malloc+0x202a>
    2ee6:	00003097          	auipc	ra,0x3
    2eea:	cda080e7          	jalr	-806(ra) # 5bc0 <printf>
      exit(1);
    2eee:	4505                	li	a0,1
    2ef0:	00003097          	auipc	ra,0x3
    2ef4:	8cc080e7          	jalr	-1844(ra) # 57bc <exit>
      name[0] = 'p' + pi;
    2ef8:	0709091b          	addiw	s2,s2,112
    2efc:	f9240023          	sb	s2,-128(s0)
      name[2] = '\0';
    2f00:	f8040123          	sb	zero,-126(s0)
      for(i = 0; i < N; i++){
    2f04:	4951                	li	s2,20
    2f06:	a015                	j	2f2a <createdelete+0xb6>
          printf("%s: create failed\n", s);
    2f08:	85e6                	mv	a1,s9
    2f0a:	00004517          	auipc	a0,0x4
    2f0e:	f0e50513          	addi	a0,a0,-242 # 6e18 <malloc+0x119a>
    2f12:	00003097          	auipc	ra,0x3
    2f16:	cae080e7          	jalr	-850(ra) # 5bc0 <printf>
          exit(1);
    2f1a:	4505                	li	a0,1
    2f1c:	00003097          	auipc	ra,0x3
    2f20:	8a0080e7          	jalr	-1888(ra) # 57bc <exit>
      for(i = 0; i < N; i++){
    2f24:	2485                	addiw	s1,s1,1
    2f26:	07248863          	beq	s1,s2,2f96 <createdelete+0x122>
        name[1] = '0' + i;
    2f2a:	0304879b          	addiw	a5,s1,48
    2f2e:	f8f400a3          	sb	a5,-127(s0)
        fd = open(name, O_CREATE | O_RDWR);
    2f32:	20200593          	li	a1,514
    2f36:	f8040513          	addi	a0,s0,-128
    2f3a:	00003097          	auipc	ra,0x3
    2f3e:	8c2080e7          	jalr	-1854(ra) # 57fc <open>
        if(fd < 0){
    2f42:	fc0543e3          	bltz	a0,2f08 <createdelete+0x94>
        close(fd);
    2f46:	00003097          	auipc	ra,0x3
    2f4a:	89e080e7          	jalr	-1890(ra) # 57e4 <close>
        if(i > 0 && (i % 2 ) == 0){
    2f4e:	fc905be3          	blez	s1,2f24 <createdelete+0xb0>
    2f52:	0014f793          	andi	a5,s1,1
    2f56:	f7f9                	bnez	a5,2f24 <createdelete+0xb0>
          name[1] = '0' + (i / 2);
    2f58:	01f4d79b          	srliw	a5,s1,0x1f
    2f5c:	9fa5                	addw	a5,a5,s1
    2f5e:	4017d79b          	sraiw	a5,a5,0x1
    2f62:	0307879b          	addiw	a5,a5,48
    2f66:	f8f400a3          	sb	a5,-127(s0)
          if(unlink(name) < 0){
    2f6a:	f8040513          	addi	a0,s0,-128
    2f6e:	00003097          	auipc	ra,0x3
    2f72:	89e080e7          	jalr	-1890(ra) # 580c <unlink>
    2f76:	fa0557e3          	bgez	a0,2f24 <createdelete+0xb0>
            printf("%s: unlink failed\n", s);
    2f7a:	85e6                	mv	a1,s9
    2f7c:	00003517          	auipc	a0,0x3
    2f80:	32c50513          	addi	a0,a0,812 # 62a8 <malloc+0x62a>
    2f84:	00003097          	auipc	ra,0x3
    2f88:	c3c080e7          	jalr	-964(ra) # 5bc0 <printf>
            exit(1);
    2f8c:	4505                	li	a0,1
    2f8e:	00003097          	auipc	ra,0x3
    2f92:	82e080e7          	jalr	-2002(ra) # 57bc <exit>
      exit(0);
    2f96:	4501                	li	a0,0
    2f98:	00003097          	auipc	ra,0x3
    2f9c:	824080e7          	jalr	-2012(ra) # 57bc <exit>
      exit(1);
    2fa0:	4505                	li	a0,1
    2fa2:	00003097          	auipc	ra,0x3
    2fa6:	81a080e7          	jalr	-2022(ra) # 57bc <exit>
        printf("%s: oops createdelete %s didn't exist\n", s, name);
    2faa:	f8040613          	addi	a2,s0,-128
    2fae:	85e6                	mv	a1,s9
    2fb0:	00004517          	auipc	a0,0x4
    2fb4:	05050513          	addi	a0,a0,80 # 7000 <malloc+0x1382>
    2fb8:	00003097          	auipc	ra,0x3
    2fbc:	c08080e7          	jalr	-1016(ra) # 5bc0 <printf>
        exit(1);
    2fc0:	4505                	li	a0,1
    2fc2:	00002097          	auipc	ra,0x2
    2fc6:	7fa080e7          	jalr	2042(ra) # 57bc <exit>
      } else if((i >= 1 && i < N/2) && fd >= 0){
    2fca:	054b7163          	bgeu	s6,s4,300c <createdelete+0x198>
      if(fd >= 0)
    2fce:	02055a63          	bgez	a0,3002 <createdelete+0x18e>
    for(pi = 0; pi < NCHILD; pi++){
    2fd2:	2485                	addiw	s1,s1,1
    2fd4:	0ff4f493          	andi	s1,s1,255
    2fd8:	05548c63          	beq	s1,s5,3030 <createdelete+0x1bc>
      name[0] = 'p' + pi;
    2fdc:	f8940023          	sb	s1,-128(s0)
      name[1] = '0' + i;
    2fe0:	f93400a3          	sb	s3,-127(s0)
      fd = open(name, 0);
    2fe4:	4581                	li	a1,0
    2fe6:	f8040513          	addi	a0,s0,-128
    2fea:	00003097          	auipc	ra,0x3
    2fee:	812080e7          	jalr	-2030(ra) # 57fc <open>
      if((i == 0 || i >= N/2) && fd < 0){
    2ff2:	00090463          	beqz	s2,2ffa <createdelete+0x186>
    2ff6:	fd2bdae3          	bge	s7,s2,2fca <createdelete+0x156>
    2ffa:	fa0548e3          	bltz	a0,2faa <createdelete+0x136>
      } else if((i >= 1 && i < N/2) && fd >= 0){
    2ffe:	014b7963          	bgeu	s6,s4,3010 <createdelete+0x19c>
        close(fd);
    3002:	00002097          	auipc	ra,0x2
    3006:	7e2080e7          	jalr	2018(ra) # 57e4 <close>
    300a:	b7e1                	j	2fd2 <createdelete+0x15e>
      } else if((i >= 1 && i < N/2) && fd >= 0){
    300c:	fc0543e3          	bltz	a0,2fd2 <createdelete+0x15e>
        printf("%s: oops createdelete %s did exist\n", s, name);
    3010:	f8040613          	addi	a2,s0,-128
    3014:	85e6                	mv	a1,s9
    3016:	00004517          	auipc	a0,0x4
    301a:	01250513          	addi	a0,a0,18 # 7028 <malloc+0x13aa>
    301e:	00003097          	auipc	ra,0x3
    3022:	ba2080e7          	jalr	-1118(ra) # 5bc0 <printf>
        exit(1);
    3026:	4505                	li	a0,1
    3028:	00002097          	auipc	ra,0x2
    302c:	794080e7          	jalr	1940(ra) # 57bc <exit>
  for(i = 0; i < N; i++){
    3030:	2905                	addiw	s2,s2,1
    3032:	2a05                	addiw	s4,s4,1
    3034:	2985                	addiw	s3,s3,1
    3036:	0ff9f993          	andi	s3,s3,255
    303a:	47d1                	li	a5,20
    303c:	02f90a63          	beq	s2,a5,3070 <createdelete+0x1fc>
    for(pi = 0; pi < NCHILD; pi++){
    3040:	84e2                	mv	s1,s8
    3042:	bf69                	j	2fdc <createdelete+0x168>
  for(i = 0; i < N; i++){
    3044:	2905                	addiw	s2,s2,1
    3046:	0ff97913          	andi	s2,s2,255
    304a:	2985                	addiw	s3,s3,1
    304c:	0ff9f993          	andi	s3,s3,255
    3050:	03490863          	beq	s2,s4,3080 <createdelete+0x20c>
  name[0] = name[1] = name[2] = 0;
    3054:	84d6                	mv	s1,s5
      name[0] = 'p' + i;
    3056:	f9240023          	sb	s2,-128(s0)
      name[1] = '0' + i;
    305a:	f93400a3          	sb	s3,-127(s0)
      unlink(name);
    305e:	f8040513          	addi	a0,s0,-128
    3062:	00002097          	auipc	ra,0x2
    3066:	7aa080e7          	jalr	1962(ra) # 580c <unlink>
    for(pi = 0; pi < NCHILD; pi++){
    306a:	34fd                	addiw	s1,s1,-1
    306c:	f4ed                	bnez	s1,3056 <createdelete+0x1e2>
    306e:	bfd9                	j	3044 <createdelete+0x1d0>
    3070:	03000993          	li	s3,48
    3074:	07000913          	li	s2,112
  name[0] = name[1] = name[2] = 0;
    3078:	4a91                	li	s5,4
  for(i = 0; i < N; i++){
    307a:	08400a13          	li	s4,132
    307e:	bfd9                	j	3054 <createdelete+0x1e0>
}
    3080:	60aa                	ld	ra,136(sp)
    3082:	640a                	ld	s0,128(sp)
    3084:	74e6                	ld	s1,120(sp)
    3086:	7946                	ld	s2,112(sp)
    3088:	79a6                	ld	s3,104(sp)
    308a:	7a06                	ld	s4,96(sp)
    308c:	6ae6                	ld	s5,88(sp)
    308e:	6b46                	ld	s6,80(sp)
    3090:	6ba6                	ld	s7,72(sp)
    3092:	6c06                	ld	s8,64(sp)
    3094:	7ce2                	ld	s9,56(sp)
    3096:	6149                	addi	sp,sp,144
    3098:	8082                	ret

000000000000309a <unlinkread>:
{
    309a:	7179                	addi	sp,sp,-48
    309c:	f406                	sd	ra,40(sp)
    309e:	f022                	sd	s0,32(sp)
    30a0:	ec26                	sd	s1,24(sp)
    30a2:	e84a                	sd	s2,16(sp)
    30a4:	e44e                	sd	s3,8(sp)
    30a6:	1800                	addi	s0,sp,48
    30a8:	89aa                	mv	s3,a0
  fd = open("unlinkread", O_CREATE | O_RDWR);
    30aa:	20200593          	li	a1,514
    30ae:	00004517          	auipc	a0,0x4
    30b2:	fa250513          	addi	a0,a0,-94 # 7050 <malloc+0x13d2>
    30b6:	00002097          	auipc	ra,0x2
    30ba:	746080e7          	jalr	1862(ra) # 57fc <open>
  if(fd < 0){
    30be:	0e054563          	bltz	a0,31a8 <unlinkread+0x10e>
    30c2:	84aa                	mv	s1,a0
  write(fd, "hello", SZ);
    30c4:	4615                	li	a2,5
    30c6:	00004597          	auipc	a1,0x4
    30ca:	fba58593          	addi	a1,a1,-70 # 7080 <malloc+0x1402>
    30ce:	00002097          	auipc	ra,0x2
    30d2:	70e080e7          	jalr	1806(ra) # 57dc <write>
  close(fd);
    30d6:	8526                	mv	a0,s1
    30d8:	00002097          	auipc	ra,0x2
    30dc:	70c080e7          	jalr	1804(ra) # 57e4 <close>
  fd = open("unlinkread", O_RDWR);
    30e0:	4589                	li	a1,2
    30e2:	00004517          	auipc	a0,0x4
    30e6:	f6e50513          	addi	a0,a0,-146 # 7050 <malloc+0x13d2>
    30ea:	00002097          	auipc	ra,0x2
    30ee:	712080e7          	jalr	1810(ra) # 57fc <open>
    30f2:	84aa                	mv	s1,a0
  if(fd < 0){
    30f4:	0c054863          	bltz	a0,31c4 <unlinkread+0x12a>
  if(unlink("unlinkread") != 0){
    30f8:	00004517          	auipc	a0,0x4
    30fc:	f5850513          	addi	a0,a0,-168 # 7050 <malloc+0x13d2>
    3100:	00002097          	auipc	ra,0x2
    3104:	70c080e7          	jalr	1804(ra) # 580c <unlink>
    3108:	ed61                	bnez	a0,31e0 <unlinkread+0x146>
  fd1 = open("unlinkread", O_CREATE | O_RDWR);
    310a:	20200593          	li	a1,514
    310e:	00004517          	auipc	a0,0x4
    3112:	f4250513          	addi	a0,a0,-190 # 7050 <malloc+0x13d2>
    3116:	00002097          	auipc	ra,0x2
    311a:	6e6080e7          	jalr	1766(ra) # 57fc <open>
    311e:	892a                	mv	s2,a0
  write(fd1, "yyy", 3);
    3120:	460d                	li	a2,3
    3122:	00004597          	auipc	a1,0x4
    3126:	fa658593          	addi	a1,a1,-90 # 70c8 <malloc+0x144a>
    312a:	00002097          	auipc	ra,0x2
    312e:	6b2080e7          	jalr	1714(ra) # 57dc <write>
  close(fd1);
    3132:	854a                	mv	a0,s2
    3134:	00002097          	auipc	ra,0x2
    3138:	6b0080e7          	jalr	1712(ra) # 57e4 <close>
  if(read(fd, buf, sizeof(buf)) != SZ){
    313c:	660d                	lui	a2,0x3
    313e:	00008597          	auipc	a1,0x8
    3142:	7a258593          	addi	a1,a1,1954 # b8e0 <buf>
    3146:	8526                	mv	a0,s1
    3148:	00002097          	auipc	ra,0x2
    314c:	68c080e7          	jalr	1676(ra) # 57d4 <read>
    3150:	4795                	li	a5,5
    3152:	0af51563          	bne	a0,a5,31fc <unlinkread+0x162>
  if(buf[0] != 'h'){
    3156:	00008717          	auipc	a4,0x8
    315a:	78a74703          	lbu	a4,1930(a4) # b8e0 <buf>
    315e:	06800793          	li	a5,104
    3162:	0af71b63          	bne	a4,a5,3218 <unlinkread+0x17e>
  if(write(fd, buf, 10) != 10){
    3166:	4629                	li	a2,10
    3168:	00008597          	auipc	a1,0x8
    316c:	77858593          	addi	a1,a1,1912 # b8e0 <buf>
    3170:	8526                	mv	a0,s1
    3172:	00002097          	auipc	ra,0x2
    3176:	66a080e7          	jalr	1642(ra) # 57dc <write>
    317a:	47a9                	li	a5,10
    317c:	0af51c63          	bne	a0,a5,3234 <unlinkread+0x19a>
  close(fd);
    3180:	8526                	mv	a0,s1
    3182:	00002097          	auipc	ra,0x2
    3186:	662080e7          	jalr	1634(ra) # 57e4 <close>
  unlink("unlinkread");
    318a:	00004517          	auipc	a0,0x4
    318e:	ec650513          	addi	a0,a0,-314 # 7050 <malloc+0x13d2>
    3192:	00002097          	auipc	ra,0x2
    3196:	67a080e7          	jalr	1658(ra) # 580c <unlink>
}
    319a:	70a2                	ld	ra,40(sp)
    319c:	7402                	ld	s0,32(sp)
    319e:	64e2                	ld	s1,24(sp)
    31a0:	6942                	ld	s2,16(sp)
    31a2:	69a2                	ld	s3,8(sp)
    31a4:	6145                	addi	sp,sp,48
    31a6:	8082                	ret
    printf("%s: create unlinkread failed\n", s);
    31a8:	85ce                	mv	a1,s3
    31aa:	00004517          	auipc	a0,0x4
    31ae:	eb650513          	addi	a0,a0,-330 # 7060 <malloc+0x13e2>
    31b2:	00003097          	auipc	ra,0x3
    31b6:	a0e080e7          	jalr	-1522(ra) # 5bc0 <printf>
    exit(1);
    31ba:	4505                	li	a0,1
    31bc:	00002097          	auipc	ra,0x2
    31c0:	600080e7          	jalr	1536(ra) # 57bc <exit>
    printf("%s: open unlinkread failed\n", s);
    31c4:	85ce                	mv	a1,s3
    31c6:	00004517          	auipc	a0,0x4
    31ca:	ec250513          	addi	a0,a0,-318 # 7088 <malloc+0x140a>
    31ce:	00003097          	auipc	ra,0x3
    31d2:	9f2080e7          	jalr	-1550(ra) # 5bc0 <printf>
    exit(1);
    31d6:	4505                	li	a0,1
    31d8:	00002097          	auipc	ra,0x2
    31dc:	5e4080e7          	jalr	1508(ra) # 57bc <exit>
    printf("%s: unlink unlinkread failed\n", s);
    31e0:	85ce                	mv	a1,s3
    31e2:	00004517          	auipc	a0,0x4
    31e6:	ec650513          	addi	a0,a0,-314 # 70a8 <malloc+0x142a>
    31ea:	00003097          	auipc	ra,0x3
    31ee:	9d6080e7          	jalr	-1578(ra) # 5bc0 <printf>
    exit(1);
    31f2:	4505                	li	a0,1
    31f4:	00002097          	auipc	ra,0x2
    31f8:	5c8080e7          	jalr	1480(ra) # 57bc <exit>
    printf("%s: unlinkread read failed", s);
    31fc:	85ce                	mv	a1,s3
    31fe:	00004517          	auipc	a0,0x4
    3202:	ed250513          	addi	a0,a0,-302 # 70d0 <malloc+0x1452>
    3206:	00003097          	auipc	ra,0x3
    320a:	9ba080e7          	jalr	-1606(ra) # 5bc0 <printf>
    exit(1);
    320e:	4505                	li	a0,1
    3210:	00002097          	auipc	ra,0x2
    3214:	5ac080e7          	jalr	1452(ra) # 57bc <exit>
    printf("%s: unlinkread wrong data\n", s);
    3218:	85ce                	mv	a1,s3
    321a:	00004517          	auipc	a0,0x4
    321e:	ed650513          	addi	a0,a0,-298 # 70f0 <malloc+0x1472>
    3222:	00003097          	auipc	ra,0x3
    3226:	99e080e7          	jalr	-1634(ra) # 5bc0 <printf>
    exit(1);
    322a:	4505                	li	a0,1
    322c:	00002097          	auipc	ra,0x2
    3230:	590080e7          	jalr	1424(ra) # 57bc <exit>
    printf("%s: unlinkread write failed\n", s);
    3234:	85ce                	mv	a1,s3
    3236:	00004517          	auipc	a0,0x4
    323a:	eda50513          	addi	a0,a0,-294 # 7110 <malloc+0x1492>
    323e:	00003097          	auipc	ra,0x3
    3242:	982080e7          	jalr	-1662(ra) # 5bc0 <printf>
    exit(1);
    3246:	4505                	li	a0,1
    3248:	00002097          	auipc	ra,0x2
    324c:	574080e7          	jalr	1396(ra) # 57bc <exit>

0000000000003250 <linktest>:
{
    3250:	1101                	addi	sp,sp,-32
    3252:	ec06                	sd	ra,24(sp)
    3254:	e822                	sd	s0,16(sp)
    3256:	e426                	sd	s1,8(sp)
    3258:	e04a                	sd	s2,0(sp)
    325a:	1000                	addi	s0,sp,32
    325c:	892a                	mv	s2,a0
  unlink("lf1");
    325e:	00004517          	auipc	a0,0x4
    3262:	ed250513          	addi	a0,a0,-302 # 7130 <malloc+0x14b2>
    3266:	00002097          	auipc	ra,0x2
    326a:	5a6080e7          	jalr	1446(ra) # 580c <unlink>
  unlink("lf2");
    326e:	00004517          	auipc	a0,0x4
    3272:	eca50513          	addi	a0,a0,-310 # 7138 <malloc+0x14ba>
    3276:	00002097          	auipc	ra,0x2
    327a:	596080e7          	jalr	1430(ra) # 580c <unlink>
  fd = open("lf1", O_CREATE|O_RDWR);
    327e:	20200593          	li	a1,514
    3282:	00004517          	auipc	a0,0x4
    3286:	eae50513          	addi	a0,a0,-338 # 7130 <malloc+0x14b2>
    328a:	00002097          	auipc	ra,0x2
    328e:	572080e7          	jalr	1394(ra) # 57fc <open>
  if(fd < 0){
    3292:	10054763          	bltz	a0,33a0 <linktest+0x150>
    3296:	84aa                	mv	s1,a0
  if(write(fd, "hello", SZ) != SZ){
    3298:	4615                	li	a2,5
    329a:	00004597          	auipc	a1,0x4
    329e:	de658593          	addi	a1,a1,-538 # 7080 <malloc+0x1402>
    32a2:	00002097          	auipc	ra,0x2
    32a6:	53a080e7          	jalr	1338(ra) # 57dc <write>
    32aa:	4795                	li	a5,5
    32ac:	10f51863          	bne	a0,a5,33bc <linktest+0x16c>
  close(fd);
    32b0:	8526                	mv	a0,s1
    32b2:	00002097          	auipc	ra,0x2
    32b6:	532080e7          	jalr	1330(ra) # 57e4 <close>
  if(link("lf1", "lf2") < 0){
    32ba:	00004597          	auipc	a1,0x4
    32be:	e7e58593          	addi	a1,a1,-386 # 7138 <malloc+0x14ba>
    32c2:	00004517          	auipc	a0,0x4
    32c6:	e6e50513          	addi	a0,a0,-402 # 7130 <malloc+0x14b2>
    32ca:	00002097          	auipc	ra,0x2
    32ce:	552080e7          	jalr	1362(ra) # 581c <link>
    32d2:	10054363          	bltz	a0,33d8 <linktest+0x188>
  unlink("lf1");
    32d6:	00004517          	auipc	a0,0x4
    32da:	e5a50513          	addi	a0,a0,-422 # 7130 <malloc+0x14b2>
    32de:	00002097          	auipc	ra,0x2
    32e2:	52e080e7          	jalr	1326(ra) # 580c <unlink>
  if(open("lf1", 0) >= 0){
    32e6:	4581                	li	a1,0
    32e8:	00004517          	auipc	a0,0x4
    32ec:	e4850513          	addi	a0,a0,-440 # 7130 <malloc+0x14b2>
    32f0:	00002097          	auipc	ra,0x2
    32f4:	50c080e7          	jalr	1292(ra) # 57fc <open>
    32f8:	0e055e63          	bgez	a0,33f4 <linktest+0x1a4>
  fd = open("lf2", 0);
    32fc:	4581                	li	a1,0
    32fe:	00004517          	auipc	a0,0x4
    3302:	e3a50513          	addi	a0,a0,-454 # 7138 <malloc+0x14ba>
    3306:	00002097          	auipc	ra,0x2
    330a:	4f6080e7          	jalr	1270(ra) # 57fc <open>
    330e:	84aa                	mv	s1,a0
  if(fd < 0){
    3310:	10054063          	bltz	a0,3410 <linktest+0x1c0>
  if(read(fd, buf, sizeof(buf)) != SZ){
    3314:	660d                	lui	a2,0x3
    3316:	00008597          	auipc	a1,0x8
    331a:	5ca58593          	addi	a1,a1,1482 # b8e0 <buf>
    331e:	00002097          	auipc	ra,0x2
    3322:	4b6080e7          	jalr	1206(ra) # 57d4 <read>
    3326:	4795                	li	a5,5
    3328:	10f51263          	bne	a0,a5,342c <linktest+0x1dc>
  close(fd);
    332c:	8526                	mv	a0,s1
    332e:	00002097          	auipc	ra,0x2
    3332:	4b6080e7          	jalr	1206(ra) # 57e4 <close>
  if(link("lf2", "lf2") >= 0){
    3336:	00004597          	auipc	a1,0x4
    333a:	e0258593          	addi	a1,a1,-510 # 7138 <malloc+0x14ba>
    333e:	852e                	mv	a0,a1
    3340:	00002097          	auipc	ra,0x2
    3344:	4dc080e7          	jalr	1244(ra) # 581c <link>
    3348:	10055063          	bgez	a0,3448 <linktest+0x1f8>
  unlink("lf2");
    334c:	00004517          	auipc	a0,0x4
    3350:	dec50513          	addi	a0,a0,-532 # 7138 <malloc+0x14ba>
    3354:	00002097          	auipc	ra,0x2
    3358:	4b8080e7          	jalr	1208(ra) # 580c <unlink>
  if(link("lf2", "lf1") >= 0){
    335c:	00004597          	auipc	a1,0x4
    3360:	dd458593          	addi	a1,a1,-556 # 7130 <malloc+0x14b2>
    3364:	00004517          	auipc	a0,0x4
    3368:	dd450513          	addi	a0,a0,-556 # 7138 <malloc+0x14ba>
    336c:	00002097          	auipc	ra,0x2
    3370:	4b0080e7          	jalr	1200(ra) # 581c <link>
    3374:	0e055863          	bgez	a0,3464 <linktest+0x214>
  if(link(".", "lf1") >= 0){
    3378:	00004597          	auipc	a1,0x4
    337c:	db858593          	addi	a1,a1,-584 # 7130 <malloc+0x14b2>
    3380:	00003517          	auipc	a0,0x3
    3384:	23850513          	addi	a0,a0,568 # 65b8 <malloc+0x93a>
    3388:	00002097          	auipc	ra,0x2
    338c:	494080e7          	jalr	1172(ra) # 581c <link>
    3390:	0e055863          	bgez	a0,3480 <linktest+0x230>
}
    3394:	60e2                	ld	ra,24(sp)
    3396:	6442                	ld	s0,16(sp)
    3398:	64a2                	ld	s1,8(sp)
    339a:	6902                	ld	s2,0(sp)
    339c:	6105                	addi	sp,sp,32
    339e:	8082                	ret
    printf("%s: create lf1 failed\n", s);
    33a0:	85ca                	mv	a1,s2
    33a2:	00004517          	auipc	a0,0x4
    33a6:	d9e50513          	addi	a0,a0,-610 # 7140 <malloc+0x14c2>
    33aa:	00003097          	auipc	ra,0x3
    33ae:	816080e7          	jalr	-2026(ra) # 5bc0 <printf>
    exit(1);
    33b2:	4505                	li	a0,1
    33b4:	00002097          	auipc	ra,0x2
    33b8:	408080e7          	jalr	1032(ra) # 57bc <exit>
    printf("%s: write lf1 failed\n", s);
    33bc:	85ca                	mv	a1,s2
    33be:	00004517          	auipc	a0,0x4
    33c2:	d9a50513          	addi	a0,a0,-614 # 7158 <malloc+0x14da>
    33c6:	00002097          	auipc	ra,0x2
    33ca:	7fa080e7          	jalr	2042(ra) # 5bc0 <printf>
    exit(1);
    33ce:	4505                	li	a0,1
    33d0:	00002097          	auipc	ra,0x2
    33d4:	3ec080e7          	jalr	1004(ra) # 57bc <exit>
    printf("%s: link lf1 lf2 failed\n", s);
    33d8:	85ca                	mv	a1,s2
    33da:	00004517          	auipc	a0,0x4
    33de:	d9650513          	addi	a0,a0,-618 # 7170 <malloc+0x14f2>
    33e2:	00002097          	auipc	ra,0x2
    33e6:	7de080e7          	jalr	2014(ra) # 5bc0 <printf>
    exit(1);
    33ea:	4505                	li	a0,1
    33ec:	00002097          	auipc	ra,0x2
    33f0:	3d0080e7          	jalr	976(ra) # 57bc <exit>
    printf("%s: unlinked lf1 but it is still there!\n", s);
    33f4:	85ca                	mv	a1,s2
    33f6:	00004517          	auipc	a0,0x4
    33fa:	d9a50513          	addi	a0,a0,-614 # 7190 <malloc+0x1512>
    33fe:	00002097          	auipc	ra,0x2
    3402:	7c2080e7          	jalr	1986(ra) # 5bc0 <printf>
    exit(1);
    3406:	4505                	li	a0,1
    3408:	00002097          	auipc	ra,0x2
    340c:	3b4080e7          	jalr	948(ra) # 57bc <exit>
    printf("%s: open lf2 failed\n", s);
    3410:	85ca                	mv	a1,s2
    3412:	00004517          	auipc	a0,0x4
    3416:	dae50513          	addi	a0,a0,-594 # 71c0 <malloc+0x1542>
    341a:	00002097          	auipc	ra,0x2
    341e:	7a6080e7          	jalr	1958(ra) # 5bc0 <printf>
    exit(1);
    3422:	4505                	li	a0,1
    3424:	00002097          	auipc	ra,0x2
    3428:	398080e7          	jalr	920(ra) # 57bc <exit>
    printf("%s: read lf2 failed\n", s);
    342c:	85ca                	mv	a1,s2
    342e:	00004517          	auipc	a0,0x4
    3432:	daa50513          	addi	a0,a0,-598 # 71d8 <malloc+0x155a>
    3436:	00002097          	auipc	ra,0x2
    343a:	78a080e7          	jalr	1930(ra) # 5bc0 <printf>
    exit(1);
    343e:	4505                	li	a0,1
    3440:	00002097          	auipc	ra,0x2
    3444:	37c080e7          	jalr	892(ra) # 57bc <exit>
    printf("%s: link lf2 lf2 succeeded! oops\n", s);
    3448:	85ca                	mv	a1,s2
    344a:	00004517          	auipc	a0,0x4
    344e:	da650513          	addi	a0,a0,-602 # 71f0 <malloc+0x1572>
    3452:	00002097          	auipc	ra,0x2
    3456:	76e080e7          	jalr	1902(ra) # 5bc0 <printf>
    exit(1);
    345a:	4505                	li	a0,1
    345c:	00002097          	auipc	ra,0x2
    3460:	360080e7          	jalr	864(ra) # 57bc <exit>
    printf("%s: link non-existant succeeded! oops\n", s);
    3464:	85ca                	mv	a1,s2
    3466:	00004517          	auipc	a0,0x4
    346a:	db250513          	addi	a0,a0,-590 # 7218 <malloc+0x159a>
    346e:	00002097          	auipc	ra,0x2
    3472:	752080e7          	jalr	1874(ra) # 5bc0 <printf>
    exit(1);
    3476:	4505                	li	a0,1
    3478:	00002097          	auipc	ra,0x2
    347c:	344080e7          	jalr	836(ra) # 57bc <exit>
    printf("%s: link . lf1 succeeded! oops\n", s);
    3480:	85ca                	mv	a1,s2
    3482:	00004517          	auipc	a0,0x4
    3486:	dbe50513          	addi	a0,a0,-578 # 7240 <malloc+0x15c2>
    348a:	00002097          	auipc	ra,0x2
    348e:	736080e7          	jalr	1846(ra) # 5bc0 <printf>
    exit(1);
    3492:	4505                	li	a0,1
    3494:	00002097          	auipc	ra,0x2
    3498:	328080e7          	jalr	808(ra) # 57bc <exit>

000000000000349c <concreate>:
{
    349c:	7135                	addi	sp,sp,-160
    349e:	ed06                	sd	ra,152(sp)
    34a0:	e922                	sd	s0,144(sp)
    34a2:	e526                	sd	s1,136(sp)
    34a4:	e14a                	sd	s2,128(sp)
    34a6:	fcce                	sd	s3,120(sp)
    34a8:	f8d2                	sd	s4,112(sp)
    34aa:	f4d6                	sd	s5,104(sp)
    34ac:	f0da                	sd	s6,96(sp)
    34ae:	ecde                	sd	s7,88(sp)
    34b0:	1100                	addi	s0,sp,160
    34b2:	89aa                	mv	s3,a0
  file[0] = 'C';
    34b4:	04300793          	li	a5,67
    34b8:	faf40423          	sb	a5,-88(s0)
  file[2] = '\0';
    34bc:	fa040523          	sb	zero,-86(s0)
  for(i = 0; i < N; i++){
    34c0:	4901                	li	s2,0
    if(pid && (i % 3) == 1){
    34c2:	4b0d                	li	s6,3
    34c4:	4a85                	li	s5,1
      link("C0", file);
    34c6:	00004b97          	auipc	s7,0x4
    34ca:	d9ab8b93          	addi	s7,s7,-614 # 7260 <malloc+0x15e2>
  for(i = 0; i < N; i++){
    34ce:	02800a13          	li	s4,40
    34d2:	acc1                	j	37a2 <concreate+0x306>
      link("C0", file);
    34d4:	fa840593          	addi	a1,s0,-88
    34d8:	855e                	mv	a0,s7
    34da:	00002097          	auipc	ra,0x2
    34de:	342080e7          	jalr	834(ra) # 581c <link>
    if(pid == 0) {
    34e2:	a45d                	j	3788 <concreate+0x2ec>
    } else if(pid == 0 && (i % 5) == 1){
    34e4:	4795                	li	a5,5
    34e6:	02f9693b          	remw	s2,s2,a5
    34ea:	4785                	li	a5,1
    34ec:	02f90b63          	beq	s2,a5,3522 <concreate+0x86>
      fd = open(file, O_CREATE | O_RDWR);
    34f0:	20200593          	li	a1,514
    34f4:	fa840513          	addi	a0,s0,-88
    34f8:	00002097          	auipc	ra,0x2
    34fc:	304080e7          	jalr	772(ra) # 57fc <open>
      if(fd < 0){
    3500:	26055b63          	bgez	a0,3776 <concreate+0x2da>
        printf("concreate create %s failed\n", file);
    3504:	fa840593          	addi	a1,s0,-88
    3508:	00004517          	auipc	a0,0x4
    350c:	d6050513          	addi	a0,a0,-672 # 7268 <malloc+0x15ea>
    3510:	00002097          	auipc	ra,0x2
    3514:	6b0080e7          	jalr	1712(ra) # 5bc0 <printf>
        exit(1);
    3518:	4505                	li	a0,1
    351a:	00002097          	auipc	ra,0x2
    351e:	2a2080e7          	jalr	674(ra) # 57bc <exit>
      link("C0", file);
    3522:	fa840593          	addi	a1,s0,-88
    3526:	00004517          	auipc	a0,0x4
    352a:	d3a50513          	addi	a0,a0,-710 # 7260 <malloc+0x15e2>
    352e:	00002097          	auipc	ra,0x2
    3532:	2ee080e7          	jalr	750(ra) # 581c <link>
      exit(0);
    3536:	4501                	li	a0,0
    3538:	00002097          	auipc	ra,0x2
    353c:	284080e7          	jalr	644(ra) # 57bc <exit>
        exit(1);
    3540:	4505                	li	a0,1
    3542:	00002097          	auipc	ra,0x2
    3546:	27a080e7          	jalr	634(ra) # 57bc <exit>
  memset(fa, 0, sizeof(fa));
    354a:	02800613          	li	a2,40
    354e:	4581                	li	a1,0
    3550:	f8040513          	addi	a0,s0,-128
    3554:	00002097          	auipc	ra,0x2
    3558:	06c080e7          	jalr	108(ra) # 55c0 <memset>
  fd = open(".", 0);
    355c:	4581                	li	a1,0
    355e:	00003517          	auipc	a0,0x3
    3562:	05a50513          	addi	a0,a0,90 # 65b8 <malloc+0x93a>
    3566:	00002097          	auipc	ra,0x2
    356a:	296080e7          	jalr	662(ra) # 57fc <open>
    356e:	892a                	mv	s2,a0
  n = 0;
    3570:	8aa6                	mv	s5,s1
    if(de.name[0] == 'C' && de.name[2] == '\0'){
    3572:	04300a13          	li	s4,67
      if(i < 0 || i >= sizeof(fa)){
    3576:	02700b13          	li	s6,39
      fa[i] = 1;
    357a:	4b85                	li	s7,1
  while(read(fd, &de, sizeof(de)) > 0){
    357c:	4641                	li	a2,16
    357e:	f7040593          	addi	a1,s0,-144
    3582:	854a                	mv	a0,s2
    3584:	00002097          	auipc	ra,0x2
    3588:	250080e7          	jalr	592(ra) # 57d4 <read>
    358c:	08a05163          	blez	a0,360e <concreate+0x172>
    if(de.inum == 0)
    3590:	f7045783          	lhu	a5,-144(s0)
    3594:	d7e5                	beqz	a5,357c <concreate+0xe0>
    if(de.name[0] == 'C' && de.name[2] == '\0'){
    3596:	f7244783          	lbu	a5,-142(s0)
    359a:	ff4791e3          	bne	a5,s4,357c <concreate+0xe0>
    359e:	f7444783          	lbu	a5,-140(s0)
    35a2:	ffe9                	bnez	a5,357c <concreate+0xe0>
      i = de.name[1] - '0';
    35a4:	f7344783          	lbu	a5,-141(s0)
    35a8:	fd07879b          	addiw	a5,a5,-48
    35ac:	0007871b          	sext.w	a4,a5
      if(i < 0 || i >= sizeof(fa)){
    35b0:	00eb6f63          	bltu	s6,a4,35ce <concreate+0x132>
      if(fa[i]){
    35b4:	fb040793          	addi	a5,s0,-80
    35b8:	97ba                	add	a5,a5,a4
    35ba:	fd07c783          	lbu	a5,-48(a5)
    35be:	eb85                	bnez	a5,35ee <concreate+0x152>
      fa[i] = 1;
    35c0:	fb040793          	addi	a5,s0,-80
    35c4:	973e                	add	a4,a4,a5
    35c6:	fd770823          	sb	s7,-48(a4)
      n++;
    35ca:	2a85                	addiw	s5,s5,1
    35cc:	bf45                	j	357c <concreate+0xe0>
        printf("%s: concreate weird file %s\n", s, de.name);
    35ce:	f7240613          	addi	a2,s0,-142
    35d2:	85ce                	mv	a1,s3
    35d4:	00004517          	auipc	a0,0x4
    35d8:	cb450513          	addi	a0,a0,-844 # 7288 <malloc+0x160a>
    35dc:	00002097          	auipc	ra,0x2
    35e0:	5e4080e7          	jalr	1508(ra) # 5bc0 <printf>
        exit(1);
    35e4:	4505                	li	a0,1
    35e6:	00002097          	auipc	ra,0x2
    35ea:	1d6080e7          	jalr	470(ra) # 57bc <exit>
        printf("%s: concreate duplicate file %s\n", s, de.name);
    35ee:	f7240613          	addi	a2,s0,-142
    35f2:	85ce                	mv	a1,s3
    35f4:	00004517          	auipc	a0,0x4
    35f8:	cb450513          	addi	a0,a0,-844 # 72a8 <malloc+0x162a>
    35fc:	00002097          	auipc	ra,0x2
    3600:	5c4080e7          	jalr	1476(ra) # 5bc0 <printf>
        exit(1);
    3604:	4505                	li	a0,1
    3606:	00002097          	auipc	ra,0x2
    360a:	1b6080e7          	jalr	438(ra) # 57bc <exit>
  close(fd);
    360e:	854a                	mv	a0,s2
    3610:	00002097          	auipc	ra,0x2
    3614:	1d4080e7          	jalr	468(ra) # 57e4 <close>
  if(n != N){
    3618:	02800793          	li	a5,40
    361c:	00fa9763          	bne	s5,a5,362a <concreate+0x18e>
    if(((i % 3) == 0 && pid == 0) ||
    3620:	4a8d                	li	s5,3
    3622:	4b05                	li	s6,1
  for(i = 0; i < N; i++){
    3624:	02800a13          	li	s4,40
    3628:	a8c9                	j	36fa <concreate+0x25e>
    printf("%s: concreate not enough files in directory listing\n", s);
    362a:	85ce                	mv	a1,s3
    362c:	00004517          	auipc	a0,0x4
    3630:	ca450513          	addi	a0,a0,-860 # 72d0 <malloc+0x1652>
    3634:	00002097          	auipc	ra,0x2
    3638:	58c080e7          	jalr	1420(ra) # 5bc0 <printf>
    exit(1);
    363c:	4505                	li	a0,1
    363e:	00002097          	auipc	ra,0x2
    3642:	17e080e7          	jalr	382(ra) # 57bc <exit>
      printf("%s: fork failed\n", s);
    3646:	85ce                	mv	a1,s3
    3648:	00003517          	auipc	a0,0x3
    364c:	83850513          	addi	a0,a0,-1992 # 5e80 <malloc+0x202>
    3650:	00002097          	auipc	ra,0x2
    3654:	570080e7          	jalr	1392(ra) # 5bc0 <printf>
      exit(1);
    3658:	4505                	li	a0,1
    365a:	00002097          	auipc	ra,0x2
    365e:	162080e7          	jalr	354(ra) # 57bc <exit>
      close(open(file, 0));
    3662:	4581                	li	a1,0
    3664:	fa840513          	addi	a0,s0,-88
    3668:	00002097          	auipc	ra,0x2
    366c:	194080e7          	jalr	404(ra) # 57fc <open>
    3670:	00002097          	auipc	ra,0x2
    3674:	174080e7          	jalr	372(ra) # 57e4 <close>
      close(open(file, 0));
    3678:	4581                	li	a1,0
    367a:	fa840513          	addi	a0,s0,-88
    367e:	00002097          	auipc	ra,0x2
    3682:	17e080e7          	jalr	382(ra) # 57fc <open>
    3686:	00002097          	auipc	ra,0x2
    368a:	15e080e7          	jalr	350(ra) # 57e4 <close>
      close(open(file, 0));
    368e:	4581                	li	a1,0
    3690:	fa840513          	addi	a0,s0,-88
    3694:	00002097          	auipc	ra,0x2
    3698:	168080e7          	jalr	360(ra) # 57fc <open>
    369c:	00002097          	auipc	ra,0x2
    36a0:	148080e7          	jalr	328(ra) # 57e4 <close>
      close(open(file, 0));
    36a4:	4581                	li	a1,0
    36a6:	fa840513          	addi	a0,s0,-88
    36aa:	00002097          	auipc	ra,0x2
    36ae:	152080e7          	jalr	338(ra) # 57fc <open>
    36b2:	00002097          	auipc	ra,0x2
    36b6:	132080e7          	jalr	306(ra) # 57e4 <close>
      close(open(file, 0));
    36ba:	4581                	li	a1,0
    36bc:	fa840513          	addi	a0,s0,-88
    36c0:	00002097          	auipc	ra,0x2
    36c4:	13c080e7          	jalr	316(ra) # 57fc <open>
    36c8:	00002097          	auipc	ra,0x2
    36cc:	11c080e7          	jalr	284(ra) # 57e4 <close>
      close(open(file, 0));
    36d0:	4581                	li	a1,0
    36d2:	fa840513          	addi	a0,s0,-88
    36d6:	00002097          	auipc	ra,0x2
    36da:	126080e7          	jalr	294(ra) # 57fc <open>
    36de:	00002097          	auipc	ra,0x2
    36e2:	106080e7          	jalr	262(ra) # 57e4 <close>
    if(pid == 0)
    36e6:	08090363          	beqz	s2,376c <concreate+0x2d0>
      wait(0);
    36ea:	4501                	li	a0,0
    36ec:	00002097          	auipc	ra,0x2
    36f0:	0d8080e7          	jalr	216(ra) # 57c4 <wait>
  for(i = 0; i < N; i++){
    36f4:	2485                	addiw	s1,s1,1
    36f6:	0f448563          	beq	s1,s4,37e0 <concreate+0x344>
    file[1] = '0' + i;
    36fa:	0304879b          	addiw	a5,s1,48
    36fe:	faf404a3          	sb	a5,-87(s0)
    pid = fork();
    3702:	00002097          	auipc	ra,0x2
    3706:	0b2080e7          	jalr	178(ra) # 57b4 <fork>
    370a:	892a                	mv	s2,a0
    if(pid < 0){
    370c:	f2054de3          	bltz	a0,3646 <concreate+0x1aa>
    if(((i % 3) == 0 && pid == 0) ||
    3710:	0354e73b          	remw	a4,s1,s5
    3714:	00a767b3          	or	a5,a4,a0
    3718:	2781                	sext.w	a5,a5
    371a:	d7a1                	beqz	a5,3662 <concreate+0x1c6>
    371c:	01671363          	bne	a4,s6,3722 <concreate+0x286>
       ((i % 3) == 1 && pid != 0)){
    3720:	f129                	bnez	a0,3662 <concreate+0x1c6>
      unlink(file);
    3722:	fa840513          	addi	a0,s0,-88
    3726:	00002097          	auipc	ra,0x2
    372a:	0e6080e7          	jalr	230(ra) # 580c <unlink>
      unlink(file);
    372e:	fa840513          	addi	a0,s0,-88
    3732:	00002097          	auipc	ra,0x2
    3736:	0da080e7          	jalr	218(ra) # 580c <unlink>
      unlink(file);
    373a:	fa840513          	addi	a0,s0,-88
    373e:	00002097          	auipc	ra,0x2
    3742:	0ce080e7          	jalr	206(ra) # 580c <unlink>
      unlink(file);
    3746:	fa840513          	addi	a0,s0,-88
    374a:	00002097          	auipc	ra,0x2
    374e:	0c2080e7          	jalr	194(ra) # 580c <unlink>
      unlink(file);
    3752:	fa840513          	addi	a0,s0,-88
    3756:	00002097          	auipc	ra,0x2
    375a:	0b6080e7          	jalr	182(ra) # 580c <unlink>
      unlink(file);
    375e:	fa840513          	addi	a0,s0,-88
    3762:	00002097          	auipc	ra,0x2
    3766:	0aa080e7          	jalr	170(ra) # 580c <unlink>
    376a:	bfb5                	j	36e6 <concreate+0x24a>
      exit(0);
    376c:	4501                	li	a0,0
    376e:	00002097          	auipc	ra,0x2
    3772:	04e080e7          	jalr	78(ra) # 57bc <exit>
      close(fd);
    3776:	00002097          	auipc	ra,0x2
    377a:	06e080e7          	jalr	110(ra) # 57e4 <close>
    if(pid == 0) {
    377e:	bb65                	j	3536 <concreate+0x9a>
      close(fd);
    3780:	00002097          	auipc	ra,0x2
    3784:	064080e7          	jalr	100(ra) # 57e4 <close>
      wait(&xstatus);
    3788:	f6c40513          	addi	a0,s0,-148
    378c:	00002097          	auipc	ra,0x2
    3790:	038080e7          	jalr	56(ra) # 57c4 <wait>
      if(xstatus != 0)
    3794:	f6c42483          	lw	s1,-148(s0)
    3798:	da0494e3          	bnez	s1,3540 <concreate+0xa4>
  for(i = 0; i < N; i++){
    379c:	2905                	addiw	s2,s2,1
    379e:	db4906e3          	beq	s2,s4,354a <concreate+0xae>
    file[1] = '0' + i;
    37a2:	0309079b          	addiw	a5,s2,48
    37a6:	faf404a3          	sb	a5,-87(s0)
    unlink(file);
    37aa:	fa840513          	addi	a0,s0,-88
    37ae:	00002097          	auipc	ra,0x2
    37b2:	05e080e7          	jalr	94(ra) # 580c <unlink>
    pid = fork();
    37b6:	00002097          	auipc	ra,0x2
    37ba:	ffe080e7          	jalr	-2(ra) # 57b4 <fork>
    if(pid && (i % 3) == 1){
    37be:	d20503e3          	beqz	a0,34e4 <concreate+0x48>
    37c2:	036967bb          	remw	a5,s2,s6
    37c6:	d15787e3          	beq	a5,s5,34d4 <concreate+0x38>
      fd = open(file, O_CREATE | O_RDWR);
    37ca:	20200593          	li	a1,514
    37ce:	fa840513          	addi	a0,s0,-88
    37d2:	00002097          	auipc	ra,0x2
    37d6:	02a080e7          	jalr	42(ra) # 57fc <open>
      if(fd < 0){
    37da:	fa0553e3          	bgez	a0,3780 <concreate+0x2e4>
    37de:	b31d                	j	3504 <concreate+0x68>
}
    37e0:	60ea                	ld	ra,152(sp)
    37e2:	644a                	ld	s0,144(sp)
    37e4:	64aa                	ld	s1,136(sp)
    37e6:	690a                	ld	s2,128(sp)
    37e8:	79e6                	ld	s3,120(sp)
    37ea:	7a46                	ld	s4,112(sp)
    37ec:	7aa6                	ld	s5,104(sp)
    37ee:	7b06                	ld	s6,96(sp)
    37f0:	6be6                	ld	s7,88(sp)
    37f2:	610d                	addi	sp,sp,160
    37f4:	8082                	ret

00000000000037f6 <linkunlink>:
{
    37f6:	711d                	addi	sp,sp,-96
    37f8:	ec86                	sd	ra,88(sp)
    37fa:	e8a2                	sd	s0,80(sp)
    37fc:	e4a6                	sd	s1,72(sp)
    37fe:	e0ca                	sd	s2,64(sp)
    3800:	fc4e                	sd	s3,56(sp)
    3802:	f852                	sd	s4,48(sp)
    3804:	f456                	sd	s5,40(sp)
    3806:	f05a                	sd	s6,32(sp)
    3808:	ec5e                	sd	s7,24(sp)
    380a:	e862                	sd	s8,16(sp)
    380c:	e466                	sd	s9,8(sp)
    380e:	1080                	addi	s0,sp,96
    3810:	84aa                	mv	s1,a0
  unlink("x");
    3812:	00003517          	auipc	a0,0x3
    3816:	f9650513          	addi	a0,a0,-106 # 67a8 <malloc+0xb2a>
    381a:	00002097          	auipc	ra,0x2
    381e:	ff2080e7          	jalr	-14(ra) # 580c <unlink>
  pid = fork();
    3822:	00002097          	auipc	ra,0x2
    3826:	f92080e7          	jalr	-110(ra) # 57b4 <fork>
  if(pid < 0){
    382a:	02054b63          	bltz	a0,3860 <linkunlink+0x6a>
    382e:	8c2a                	mv	s8,a0
  unsigned int x = (pid ? 1 : 97);
    3830:	4c85                	li	s9,1
    3832:	e119                	bnez	a0,3838 <linkunlink+0x42>
    3834:	06100c93          	li	s9,97
    3838:	06400493          	li	s1,100
    x = x * 1103515245 + 12345;
    383c:	41c659b7          	lui	s3,0x41c65
    3840:	e6d9899b          	addiw	s3,s3,-403
    3844:	690d                	lui	s2,0x3
    3846:	0399091b          	addiw	s2,s2,57
    if((x % 3) == 0){
    384a:	4a0d                	li	s4,3
    } else if((x % 3) == 1){
    384c:	4b05                	li	s6,1
      unlink("x");
    384e:	00003a97          	auipc	s5,0x3
    3852:	f5aa8a93          	addi	s5,s5,-166 # 67a8 <malloc+0xb2a>
      link("cat", "x");
    3856:	00004b97          	auipc	s7,0x4
    385a:	ab2b8b93          	addi	s7,s7,-1358 # 7308 <malloc+0x168a>
    385e:	a825                	j	3896 <linkunlink+0xa0>
    printf("%s: fork failed\n", s);
    3860:	85a6                	mv	a1,s1
    3862:	00002517          	auipc	a0,0x2
    3866:	61e50513          	addi	a0,a0,1566 # 5e80 <malloc+0x202>
    386a:	00002097          	auipc	ra,0x2
    386e:	356080e7          	jalr	854(ra) # 5bc0 <printf>
    exit(1);
    3872:	4505                	li	a0,1
    3874:	00002097          	auipc	ra,0x2
    3878:	f48080e7          	jalr	-184(ra) # 57bc <exit>
      close(open("x", O_RDWR | O_CREATE));
    387c:	20200593          	li	a1,514
    3880:	8556                	mv	a0,s5
    3882:	00002097          	auipc	ra,0x2
    3886:	f7a080e7          	jalr	-134(ra) # 57fc <open>
    388a:	00002097          	auipc	ra,0x2
    388e:	f5a080e7          	jalr	-166(ra) # 57e4 <close>
  for(i = 0; i < 100; i++){
    3892:	34fd                	addiw	s1,s1,-1
    3894:	c88d                	beqz	s1,38c6 <linkunlink+0xd0>
    x = x * 1103515245 + 12345;
    3896:	033c87bb          	mulw	a5,s9,s3
    389a:	012787bb          	addw	a5,a5,s2
    389e:	00078c9b          	sext.w	s9,a5
    if((x % 3) == 0){
    38a2:	0347f7bb          	remuw	a5,a5,s4
    38a6:	dbf9                	beqz	a5,387c <linkunlink+0x86>
    } else if((x % 3) == 1){
    38a8:	01678863          	beq	a5,s6,38b8 <linkunlink+0xc2>
      unlink("x");
    38ac:	8556                	mv	a0,s5
    38ae:	00002097          	auipc	ra,0x2
    38b2:	f5e080e7          	jalr	-162(ra) # 580c <unlink>
    38b6:	bff1                	j	3892 <linkunlink+0x9c>
      link("cat", "x");
    38b8:	85d6                	mv	a1,s5
    38ba:	855e                	mv	a0,s7
    38bc:	00002097          	auipc	ra,0x2
    38c0:	f60080e7          	jalr	-160(ra) # 581c <link>
    38c4:	b7f9                	j	3892 <linkunlink+0x9c>
  if(pid)
    38c6:	020c0463          	beqz	s8,38ee <linkunlink+0xf8>
    wait(0);
    38ca:	4501                	li	a0,0
    38cc:	00002097          	auipc	ra,0x2
    38d0:	ef8080e7          	jalr	-264(ra) # 57c4 <wait>
}
    38d4:	60e6                	ld	ra,88(sp)
    38d6:	6446                	ld	s0,80(sp)
    38d8:	64a6                	ld	s1,72(sp)
    38da:	6906                	ld	s2,64(sp)
    38dc:	79e2                	ld	s3,56(sp)
    38de:	7a42                	ld	s4,48(sp)
    38e0:	7aa2                	ld	s5,40(sp)
    38e2:	7b02                	ld	s6,32(sp)
    38e4:	6be2                	ld	s7,24(sp)
    38e6:	6c42                	ld	s8,16(sp)
    38e8:	6ca2                	ld	s9,8(sp)
    38ea:	6125                	addi	sp,sp,96
    38ec:	8082                	ret
    exit(0);
    38ee:	4501                	li	a0,0
    38f0:	00002097          	auipc	ra,0x2
    38f4:	ecc080e7          	jalr	-308(ra) # 57bc <exit>

00000000000038f8 <subdir>:
{
    38f8:	1101                	addi	sp,sp,-32
    38fa:	ec06                	sd	ra,24(sp)
    38fc:	e822                	sd	s0,16(sp)
    38fe:	e426                	sd	s1,8(sp)
    3900:	e04a                	sd	s2,0(sp)
    3902:	1000                	addi	s0,sp,32
    3904:	892a                	mv	s2,a0
  unlink("ff");
    3906:	00004517          	auipc	a0,0x4
    390a:	b3a50513          	addi	a0,a0,-1222 # 7440 <malloc+0x17c2>
    390e:	00002097          	auipc	ra,0x2
    3912:	efe080e7          	jalr	-258(ra) # 580c <unlink>
  if(mkdir("dd") != 0){
    3916:	00004517          	auipc	a0,0x4
    391a:	9fa50513          	addi	a0,a0,-1542 # 7310 <malloc+0x1692>
    391e:	00002097          	auipc	ra,0x2
    3922:	f06080e7          	jalr	-250(ra) # 5824 <mkdir>
    3926:	38051663          	bnez	a0,3cb2 <subdir+0x3ba>
  fd = open("dd/ff", O_CREATE | O_RDWR);
    392a:	20200593          	li	a1,514
    392e:	00004517          	auipc	a0,0x4
    3932:	a0250513          	addi	a0,a0,-1534 # 7330 <malloc+0x16b2>
    3936:	00002097          	auipc	ra,0x2
    393a:	ec6080e7          	jalr	-314(ra) # 57fc <open>
    393e:	84aa                	mv	s1,a0
  if(fd < 0){
    3940:	38054763          	bltz	a0,3cce <subdir+0x3d6>
  write(fd, "ff", 2);
    3944:	4609                	li	a2,2
    3946:	00004597          	auipc	a1,0x4
    394a:	afa58593          	addi	a1,a1,-1286 # 7440 <malloc+0x17c2>
    394e:	00002097          	auipc	ra,0x2
    3952:	e8e080e7          	jalr	-370(ra) # 57dc <write>
  close(fd);
    3956:	8526                	mv	a0,s1
    3958:	00002097          	auipc	ra,0x2
    395c:	e8c080e7          	jalr	-372(ra) # 57e4 <close>
  if(unlink("dd") >= 0){
    3960:	00004517          	auipc	a0,0x4
    3964:	9b050513          	addi	a0,a0,-1616 # 7310 <malloc+0x1692>
    3968:	00002097          	auipc	ra,0x2
    396c:	ea4080e7          	jalr	-348(ra) # 580c <unlink>
    3970:	36055d63          	bgez	a0,3cea <subdir+0x3f2>
  if(mkdir("/dd/dd") != 0){
    3974:	00004517          	auipc	a0,0x4
    3978:	a1450513          	addi	a0,a0,-1516 # 7388 <malloc+0x170a>
    397c:	00002097          	auipc	ra,0x2
    3980:	ea8080e7          	jalr	-344(ra) # 5824 <mkdir>
    3984:	38051163          	bnez	a0,3d06 <subdir+0x40e>
  fd = open("dd/dd/ff", O_CREATE | O_RDWR);
    3988:	20200593          	li	a1,514
    398c:	00004517          	auipc	a0,0x4
    3990:	a2450513          	addi	a0,a0,-1500 # 73b0 <malloc+0x1732>
    3994:	00002097          	auipc	ra,0x2
    3998:	e68080e7          	jalr	-408(ra) # 57fc <open>
    399c:	84aa                	mv	s1,a0
  if(fd < 0){
    399e:	38054263          	bltz	a0,3d22 <subdir+0x42a>
  write(fd, "FF", 2);
    39a2:	4609                	li	a2,2
    39a4:	00004597          	auipc	a1,0x4
    39a8:	a3c58593          	addi	a1,a1,-1476 # 73e0 <malloc+0x1762>
    39ac:	00002097          	auipc	ra,0x2
    39b0:	e30080e7          	jalr	-464(ra) # 57dc <write>
  close(fd);
    39b4:	8526                	mv	a0,s1
    39b6:	00002097          	auipc	ra,0x2
    39ba:	e2e080e7          	jalr	-466(ra) # 57e4 <close>
  fd = open("dd/dd/../ff", 0);
    39be:	4581                	li	a1,0
    39c0:	00004517          	auipc	a0,0x4
    39c4:	a2850513          	addi	a0,a0,-1496 # 73e8 <malloc+0x176a>
    39c8:	00002097          	auipc	ra,0x2
    39cc:	e34080e7          	jalr	-460(ra) # 57fc <open>
    39d0:	84aa                	mv	s1,a0
  if(fd < 0){
    39d2:	36054663          	bltz	a0,3d3e <subdir+0x446>
  cc = read(fd, buf, sizeof(buf));
    39d6:	660d                	lui	a2,0x3
    39d8:	00008597          	auipc	a1,0x8
    39dc:	f0858593          	addi	a1,a1,-248 # b8e0 <buf>
    39e0:	00002097          	auipc	ra,0x2
    39e4:	df4080e7          	jalr	-524(ra) # 57d4 <read>
  if(cc != 2 || buf[0] != 'f'){
